Certificate:
    Data:
        Version: 3 (0x2)
        Serial Number: 6 (0x6)
        Signature Algorithm: sha256WithRSAEncryption
        Issuer: C=US, O=SCADA, OU=Component CA, CN=Component CA
        Validity
            Not Before: Dec  5 20:08:06 2022 GMT
            Not After : Dec  4 20:08:06 2024 GMT
        Subject: C=US, ST=NC, L=Raleigh, O=SCADA, OU=SCADA_WEB, CN=web.scada.local
        Subject Public Key Info:
            Public Key Algorithm: rsaEncryption
                Public-Key: (4096 bit)
                Modulus:
                    00:b1:5d:a3:3d:20:d4:bb:00:7d:b8:2c:d2:bb:c7:
                    c1:f0:05:10:2d:46:4a:ae:cd:8f:ba:72:4b:85:0b:
                    2c:fd:15:25:bf:5d:bd:9a:8b:9c:38:2c:29:58:4c:
                    2f:2b:02:93:87:3f:d1:d5:81:9e:2f:e8:00:11:49:
                    6e:aa:6d:96:cf:a4:84:9d:4b:20:2f:a3:c7:01:33:
                    9c:24:5f:48:4b:de:97:34:b0:40:5a:f9:ed:19:54:
                    e7:f3:ee:0f:94:e4:47:08:ed:fc:79:33:bb:6b:03:
                    61:04:26:31:f3:57:72:56:ea:97:df:63:5f:cb:bb:
                    3f:84:a5:78:6b:55:2e:15:22:7a:91:75:ee:9f:5a:
                    05:d9:37:40:b3:67:f4:8c:64:6b:bf:71:ca:73:60:
                    17:b2:45:7e:61:e2:4a:e6:39:bd:f6:5d:db:c0:1f:
                    f0:0a:3c:75:13:3b:96:7b:b6:d4:3f:ba:98:4c:9b:
                    26:ad:ed:c6:37:d4:fa:25:75:f7:62:67:87:a6:c9:
                    aa:da:58:1c:32:11:6f:78:fd:37:c6:7c:0a:ab:5d:
                    60:ec:fa:c4:c0:64:72:57:fe:82:82:4e:09:f3:20:
                    5c:66:75:1e:93:2a:aa:73:3a:6e:a8:ba:c5:d6:a4:
                    c6:a7:d8:d8:b5:18:3d:1d:ea:30:d9:33:0c:ef:f6:
                    d7:a6:98:e3:31:42:9b:18:35:8b:2d:b0:72:c9:eb:
                    e9:da:04:ef:2f:91:f5:b6:5d:ed:18:ee:5a:09:44:
                    b7:ef:34:1a:a7:46:68:6b:ce:e7:50:b0:f6:2e:1f:
                    67:8a:98:cf:ec:92:a5:3d:f8:83:4e:c0:13:37:1e:
                    eb:d8:a5:57:f7:26:97:5b:7d:f3:6c:bd:db:fe:18:
                    ec:b2:e8:83:d0:42:be:3e:6a:0d:f4:d9:3c:1c:22:
                    ad:4b:15:ac:40:0f:04:7b:86:66:f4:68:db:d3:e7:
                    98:96:69:7a:19:78:9d:55:53:4e:04:17:1d:ad:63:
                    de:4a:90:cf:5e:ce:23:0b:79:f7:35:68:22:f3:e9:
                    16:f4:ea:94:51:ed:89:87:db:1f:4b:f8:6d:2f:d7:
                    9f:21:f3:bc:54:d1:8a:c8:ad:e0:46:43:6b:d6:d3:
                    2c:74:fa:57:41:c1:a9:1c:59:56:ff:71:6d:99:0f:
                    8f:44:f4:22:ba:6d:59:2f:57:5a:61:c5:a2:f3:62:
                    ab:58:a7:7b:33:57:e0:35:0b:8e:d2:2f:02:c1:fd:
                    07:44:89:ac:57:ba:87:c6:ef:12:af:50:da:5c:1e:
                    1c:8d:9a:d6:f0:f9:cf:29:35:17:45:7a:2c:8f:5f:
                    4b:b6:5d:9b:ea:59:5a:86:cb:c0:04:d1:b7:79:a0:
                    e4:a7:dd
                Exponent: 65537 (0x10001)
        X509v3 extensions:
            X509v3 Key Usage: critical
                Digital Signature
            X509v3 Basic Constraints: 
                CA:FALSE
            X509v3 Extended Key Usage: 
                TLS Web Client Authentication
            X509v3 Subject Key Identifier: 
                F9:0E:6E:0D:70:D5:A8:71:8E:C2:EE:31:D1:46:63:4A:7B:1F:60:C8
            X509v3 Authority Key Identifier: 
                8A:EC:AB:95:84:4F:E3:07:75:86:68:CC:59:B9:2B:FF:A8:14:5D:E3
            Authority Information Access: 
                CA Issuers - URI:http://pki.scada.local/component-ca.cer
            X509v3 CRL Distribution Points: 
                Full Name:
                  URI:http://pki.scada.local/component-ca.crl
            X509v3 Certificate Policies: 
                Policy: Blue Medium Device Assurance
    Signature Algorithm: sha256WithRSAEncryption
    Signature Value:
        97:7f:67:85:1f:44:a2:67:0a:a0:b1:c3:a8:48:0d:e1:63:7f:
        c7:27:bb:c1:8f:9a:5b:46:a3:86:37:dc:2c:f4:00:23:16:92:
        af:86:03:63:18:96:c9:4e:d5:65:c3:72:90:bf:32:b1:39:fe:
        af:81:c1:97:93:fd:4c:20:39:67:0f:c9:00:69:62:0a:73:40:
        05:d0:0b:de:83:42:f7:21:54:1d:4d:e1:26:f1:2a:dc:74:f5:
        e3:0a:89:08:13:ff:8b:b6:5b:4d:c6:9e:2d:11:82:62:87:6f:
        29:72:55:8e:48:de:52:e7:a4:68:d8:fb:0f:23:af:d4:28:97:
        69:7e:22:6e:74:f4:52:5a:83:23:4e:c2:31:d2:f8:27:c9:d3:
        b5:ea:29:8c:79:96:16:48:22:9c:89:99:80:61:71:f3:e8:f6:
        14:8a:44:65:69:72:aa:47:5c:53:0a:9d:09:a1:b5:87:60:13:
        30:8f:ce:d6:be:db:5a:d8:c4:ad:ea:39:d7:5f:65:59:9b:6e:
        71:23:d0:93:07:71:69:ed:ff:f5:ff:90:b4:79:bb:bb:2d:d8:
        df:b5:9e:17:47:86:cd:44:cc:41:6d:1b:1c:c0:ae:56:83:4b:
        3b:cc:71:b8:41:17:e2:00:b7:83:43:8a:13:dd:4c:70:e1:ef:
        86:44:76:0c:42:67:3f:7d:2d:db:6a:1d:41:90:2a:f5:1d:59:
        4e:57:c8:46:77:89:40:3a:44:13:91:e1:5b:86:ee:79:82:65:
        82:f7:bd:61:06:f8:aa:29:61:1f:fb:c3:1d:91:c8:d8:03:db:
        02:94:7f:d5:e0:b3:9c:76:d2:71:6f:65:c6:e4:22:24:04:20:
        64:71:5f:b5:eb:70:ec:5b:d9:c3:68:1d:48:a0:5a:0e:c3:34:
        17:9a:22:8e:36:63:db:29:4d:ec:46:67:ab:83:ca:68:c5:0f:
        0f:4f:da:61:d3:d1:4a:43:39:e3:82:4b:0c:8c:49:ed:d8:76:
        1c:d3:96:2d:08:25:eb:b2:b0:17:7a:2d:39:0c:bf:0a:ba:4e:
        70:ec:89:38:a9:92:20:41:f1:e3:bf:fb:65:8d:79:74:f1:6d:
        8e:9a:5c:1d:03:82:a0:41:c3:69:e0:d1:de:7c:85:63:01:ed:
        bd:d5:ca:c4:45:5a:d6:ff:51:9f:3e:a7:c4:d6:4e:cc:ae:08:
        7f:0b:3d:d5:65:f3:72:88:b5:c9:ac:1c:ea:30:16:8d:a1:7d:
        1d:31:1d:76:cc:af:e0:c2:d8:40:f3:ef:fc:d6:42:56:81:2b:
        54:66:96:4b:0c:9b:ae:89:6c:e1:bd:a2:b9:8d:35:f6:76:9d:
        45:d6:09:f6:b4:a8:3a:da
-----BEGIN CERTIFICATE-----
MIIGPTCCBCWgAwIBAgIBBjANBgkqhkiG9w0BAQsFADBLMQswCQYDVQQGEwJVUzEO
MAwGA1UECgwFU0NBREExFTATBgNVBAsMDENvbXBvbmVudCBDQTEVMBMGA1UEAwwM
Q29tcG9uZW50IENBMB4XDTIyMTIwNTIwMDgwNloXDTI0MTIwNDIwMDgwNlowajEL
MAkGA1UEBhMCVVMxCzAJBgNVBAgMAk5DMRAwDgYDVQQHDAdSYWxlaWdoMQ4wDAYD
VQQKDAVTQ0FEQTESMBAGA1UECwwJU0NBREFfV0VCMRgwFgYDVQQDDA93ZWIuc2Nh
ZGEubG9jYWwwggIiMA0GCSqGSIb3DQEBAQUAA4ICDwAwggIKAoICAQCxXaM9INS7
AH24LNK7x8HwBRAtRkquzY+6ckuFCyz9FSW/Xb2ai5w4LClYTC8rApOHP9HVgZ4v
6AARSW6qbZbPpISdSyAvo8cBM5wkX0hL3pc0sEBa+e0ZVOfz7g+U5EcI7fx5M7tr
A2EEJjHzV3JW6pffY1/Luz+EpXhrVS4VInqRde6fWgXZN0CzZ/SMZGu/ccpzYBey
RX5h4krmOb32XdvAH/AKPHUTO5Z7ttQ/uphMmyat7cY31PoldfdiZ4emyaraWBwy
EW94/TfGfAqrXWDs+sTAZHJX/oKCTgnzIFxmdR6TKqpzOm6ousXWpMan2Ni1GD0d
6jDZMwzv9temmOMxQpsYNYstsHLJ6+naBO8vkfW2Xe0Y7loJRLfvNBqnRmhrzudQ
sPYuH2eKmM/skqU9+INOwBM3HuvYpVf3JpdbffNsvdv+GOyy6IPQQr4+ag302Twc
Iq1LFaxADwR7hmb0aNvT55iWaXoZeJ1VU04EFx2tY95KkM9eziMLefc1aCLz6Rb0
6pRR7YmH2x9L+G0v158h87xU0YrIreBGQ2vW0yx0+ldBwakcWVb/cW2ZD49E9CK6
bVkvV1phxaLzYqtYp3szV+A1C47SLwLB/QdEiaxXuofG7xKvUNpcHhyNmtbw+c8p
NRdFeiyPX0u2XZvqWVqGy8AE0bd5oOSn3QIDAQABo4IBCzCCAQcwDgYDVR0PAQH/
BAQDAgeAMAkGA1UdEwQCMAAwEwYDVR0lBAwwCgYIKwYBBQUHAwIwHQYDVR0OBBYE
FPkObg1w1ahxjsLuMdFGY0p7H2DIMB8GA1UdIwQYMBaAFIrsq5WET+MHdYZozFm5
K/+oFF3jMEMGCCsGAQUFBwEBBDcwNTAzBggrBgEFBQcwAoYnaHR0cDovL3BraS5z
Y2FkYS5sb2NhbC9jb21wb25lbnQtY2EuY2VyMDgGA1UdHwQxMC8wLaAroCmGJ2h0
dHA6Ly9wa2kuc2NhZGEubG9jYWwvY29tcG9uZW50LWNhLmNybDAWBgNVHSAEDzAN
MAsGCSsGAQQBAAEHCTANBgkqhkiG9w0BAQsFAAOCAgEAl39nhR9EomcKoLHDqEgN
4WN/xye7wY+aW0ajhjfcLPQAIxaSr4YDYxiWyU7VZcNykL8ysTn+r4HBl5P9TCA5
Zw/JAGliCnNABdAL3oNC9yFUHU3hJvEq3HT14wqJCBP/i7ZbTcaeLRGCYodvKXJV
jkjeUuekaNj7DyOv1CiXaX4ibnT0UlqDI07CMdL4J8nTteopjHmWFkginImZgGFx
8+j2FIpEZWlyqkdcUwqdCaG1h2ATMI/O1r7bWtjEreo5119lWZtucSPQkwdxae3/
9f+QtHm7uy3Y37WeF0eGzUTMQW0bHMCuVoNLO8xxuEEX4gC3g0OKE91McOHvhkR2
DEJnP30t22odQZAq9R1ZTlfIRneJQDpEE5HhW4bueYJlgve9YQb4qilhH/vDHZHI
2APbApR/1eCznHbScW9lxuQiJAQgZHFftetw7FvZw2gdSKBaDsM0F5oijjZj2ylN
7EZnq4PKaMUPD0/aYdPRSkM544JLDIxJ7dh2HNOWLQgl67KwF3otOQy/CrpOcOyJ
OKmSIEHx47/7ZY15dPFtjppcHQOCoEHDaeDR3nyFYwHtvdXKxEVa1v9Rnz6nxNZO
zK4Ifws91WXzcoi1yawc6jAWjaF9HTEddsyv4MLYQPPv/NZCVoErVGaWSwybrols
4b2iuY019nadRdYJ9rSoOto=
-----END CERTIFICATE-----
