Certificate:
    Data:
        Version: 3 (0x2)
        Serial Number: 5 (0x5)
        Signature Algorithm: sha256WithRSAEncryption
        Issuer: C=US, O=SCADA, OU=Component CA, CN=Component CA
        Validity
            Not Before: Dec  5 20:04:33 2022 GMT
            Not After : Dec  4 20:04:33 2024 GMT
        Subject: C=US, ST=NC, L=Raleigh, O=SCADA, OU=SCADA_WEB, CN=web.scada.local
        Subject Public Key Info:
            Public Key Algorithm: rsaEncryption
                Public-Key: (4096 bit)
                Modulus:
                    00:a2:74:fb:3f:79:7a:0b:9f:73:43:a2:10:a7:57:
                    69:a2:4d:5a:c8:ab:dd:52:99:db:d0:43:f1:71:99:
                    48:1f:b0:12:a2:6f:f8:13:9f:93:21:74:f4:f1:f6:
                    c2:a8:58:92:7e:83:cf:9c:36:7d:3c:98:5c:fc:6e:
                    17:cc:cc:dd:53:99:b3:11:fa:26:77:5c:c2:72:98:
                    ea:ca:57:e4:e0:3e:69:1f:8b:12:5c:99:08:44:cb:
                    18:93:03:2a:ee:1d:e9:e7:0a:f3:ce:f1:79:c7:d3:
                    46:e1:d2:da:c0:41:65:39:ef:fd:db:58:4a:e2:ac:
                    27:5f:e1:c8:fe:66:49:4e:d0:17:19:fb:1f:35:e2:
                    da:39:1c:c4:3b:26:26:ea:92:1d:0c:6f:57:55:66:
                    c2:54:33:a9:3a:f6:02:62:d8:a4:b4:23:b9:53:c6:
                    e5:ce:aa:72:9c:42:b8:8f:cb:29:6c:6b:b4:68:05:
                    af:43:89:51:94:75:23:db:b2:18:e6:a5:dd:25:9e:
                    23:60:d3:bc:83:29:24:b1:18:1e:3f:cd:ba:1a:16:
                    5d:1c:24:e0:af:cf:c6:e5:a4:dc:78:12:b8:c2:5c:
                    b1:4f:e7:23:3d:1a:48:eb:aa:d6:11:dc:9e:5d:8a:
                    87:59:d7:c7:cb:6f:87:ae:15:a5:7e:65:d7:3e:6c:
                    07:b1:c2:82:9f:7d:4c:32:82:47:3b:61:eb:d4:16:
                    ce:14:f1:63:2a:9d:aa:50:26:d5:3b:8c:35:c4:f4:
                    bd:35:77:d7:7f:74:d5:38:e6:57:f6:ec:5f:90:5a:
                    e8:2c:3f:53:2a:39:ff:a2:27:00:98:8a:79:dd:e1:
                    46:f3:e2:ed:bf:1c:c9:7b:4b:38:13:94:34:6c:ec:
                    3a:f8:8a:c5:c1:4c:c7:06:63:4e:b9:10:1f:c0:4a:
                    15:bb:7a:ff:dc:4e:04:59:88:9c:0d:a0:ec:5a:f9:
                    d1:57:68:b7:2a:b5:85:0d:ff:8b:54:5c:23:4d:d5:
                    53:6e:b6:94:66:92:22:81:ec:c7:97:c0:74:e4:bd:
                    04:3a:6f:ac:3b:f3:aa:c1:a2:f0:df:6e:78:14:3a:
                    9f:00:f9:da:8b:c8:de:c6:e7:fe:b1:28:4b:5a:84:
                    c6:3b:fd:41:15:c7:51:02:c5:4c:d9:d2:8e:b7:e2:
                    ad:64:8a:9f:83:bb:95:84:d3:5b:a7:ad:99:e9:ff:
                    04:5f:2c:5c:96:9b:d7:dc:b7:d7:bb:93:ac:36:d9:
                    76:38:e8:bc:34:19:13:a6:ca:f4:b1:bd:52:9b:75:
                    4f:e1:2e:b8:d4:80:89:1f:cd:d0:74:d7:8a:c5:4b:
                    21:b1:2e:8a:6d:b8:c1:19:39:0b:50:68:5e:41:c6:
                    69:7a:d7
                Exponent: 65537 (0x10001)
        X509v3 extensions:
            X509v3 Key Usage: critical
                Digital Signature
            X509v3 Basic Constraints: 
                CA:FALSE
            X509v3 Extended Key Usage: 
                TLS Web Client Authentication
            X509v3 Subject Key Identifier: 
                E8:DB:42:4C:C3:BA:EE:0E:4F:F6:DE:AF:5D:B3:62:A4:74:4F:EE:36
            X509v3 Authority Key Identifier: 
                8A:EC:AB:95:84:4F:E3:07:75:86:68:CC:59:B9:2B:FF:A8:14:5D:E3
            Authority Information Access: 
                CA Issuers - URI:http://pki.scada.local/component-ca.cer
            X509v3 CRL Distribution Points: 
                Full Name:
                  URI:http://pki.scada.local/component-ca.crl
            X509v3 Certificate Policies: 
                Policy: Blue Medium Device Assurance
    Signature Algorithm: sha256WithRSAEncryption
    Signature Value:
        5e:02:6e:67:81:41:10:bb:0f:46:90:7b:c5:8a:f5:76:53:64:
        19:35:45:90:8a:2c:80:07:8a:7b:ca:76:50:3e:f2:ff:6e:e5:
        b4:c5:b6:e5:2e:72:aa:71:08:31:c7:d5:b5:6e:e4:72:b2:67:
        8e:73:71:5f:66:19:43:d1:d9:4a:26:e1:fd:97:f6:f6:ff:51:
        03:18:f5:d2:e6:13:7e:c9:d2:75:a9:42:72:6c:00:0f:dc:8d:
        e2:64:e9:a9:94:7a:c8:db:ab:71:3f:ff:40:ac:fc:a9:a5:b3:
        7b:75:b6:7a:34:11:e9:cc:55:75:f2:4b:fa:22:3a:3c:b6:6f:
        f7:81:ee:8f:0a:30:4b:00:8a:fe:6b:16:d1:a0:36:a5:e0:f8:
        17:c0:1d:2c:b6:7f:51:ad:7b:59:f1:a7:00:5e:56:90:9b:6b:
        65:81:86:85:a6:59:3a:af:3e:1a:c0:80:70:c2:52:4a:8e:e4:
        9a:0f:1e:97:25:5c:77:55:b2:65:94:da:88:92:dd:f6:ed:b5:
        66:45:b9:0e:18:21:dd:6a:9f:d7:1c:a7:4e:1d:ee:85:8c:6e:
        7a:b4:f0:cb:a7:52:4a:af:a1:63:f6:b3:80:ca:88:e9:fc:63:
        96:02:d1:ae:6c:c1:ed:a5:95:2d:ea:f0:38:dc:e8:5c:47:ce:
        25:ff:e8:17:14:f7:89:41:ab:1b:e5:39:c4:80:c2:6a:fd:4d:
        f1:62:91:3e:33:41:52:ce:45:09:70:fa:9c:be:38:59:d2:2a:
        fe:1d:bc:75:87:4a:dd:0b:5d:b1:de:d5:69:69:2a:68:ba:c9:
        a4:d9:d8:45:32:de:b8:62:4c:db:08:60:f8:1e:a9:76:89:46:
        f5:8e:21:6c:39:ff:83:c0:d0:fc:3f:20:5f:b9:bc:6d:cb:59:
        1f:1f:70:00:fc:77:4d:bb:87:56:e5:91:89:4b:2b:42:dc:6e:
        b7:56:0b:19:42:17:13:5e:dd:2f:25:9c:09:68:61:c8:1d:2c:
        06:24:7c:05:17:f0:7e:69:6c:03:18:0b:c2:2d:76:a5:aa:26:
        78:c5:2b:b0:2e:97:b2:4e:d6:61:12:f1:4a:be:74:49:7d:d4:
        ba:78:e8:3c:2e:8d:15:b9:1b:d1:69:0e:dc:da:18:31:15:8e:
        9c:b2:98:92:0c:25:af:a6:93:11:9b:7a:78:6b:e7:52:b4:9c:
        e7:47:26:39:b5:ca:e0:34:eb:86:b2:4e:70:9a:de:e6:1e:17:
        96:b1:bc:b9:40:27:e6:22:e4:ad:2d:75:e9:57:8b:99:08:4a:
        e2:1d:fe:f4:b2:33:99:64:91:f3:b0:13:00:7d:5a:06:9d:54:
        58:4d:64:39:db:75:28:8a
-----BEGIN CERTIFICATE-----
MIIGPTCCBCWgAwIBAgIBBTANBgkqhkiG9w0BAQsFADBLMQswCQYDVQQGEwJVUzEO
MAwGA1UECgwFU0NBREExFTATBgNVBAsMDENvbXBvbmVudCBDQTEVMBMGA1UEAwwM
Q29tcG9uZW50IENBMB4XDTIyMTIwNTIwMDQzM1oXDTI0MTIwNDIwMDQzM1owajEL
MAkGA1UEBhMCVVMxCzAJBgNVBAgMAk5DMRAwDgYDVQQHDAdSYWxlaWdoMQ4wDAYD
VQQKDAVTQ0FEQTESMBAGA1UECwwJU0NBREFfV0VCMRgwFgYDVQQDDA93ZWIuc2Nh
ZGEubG9jYWwwggIiMA0GCSqGSIb3DQEBAQUAA4ICDwAwggIKAoICAQCidPs/eXoL
n3NDohCnV2miTVrIq91SmdvQQ/FxmUgfsBKib/gTn5MhdPTx9sKoWJJ+g8+cNn08
mFz8bhfMzN1TmbMR+iZ3XMJymOrKV+TgPmkfixJcmQhEyxiTAyruHennCvPO8XnH
00bh0trAQWU57/3bWErirCdf4cj+ZklO0BcZ+x814to5HMQ7Jibqkh0Mb1dVZsJU
M6k69gJi2KS0I7lTxuXOqnKcQriPyylsa7RoBa9DiVGUdSPbshjmpd0lniNg07yD
KSSxGB4/zboaFl0cJOCvz8blpNx4ErjCXLFP5yM9GkjrqtYR3J5diodZ18fLb4eu
FaV+Zdc+bAexwoKffUwygkc7YevUFs4U8WMqnapQJtU7jDXE9L01d9d/dNU45lf2
7F+QWugsP1MqOf+iJwCYinnd4Ubz4u2/HMl7SzgTlDRs7Dr4isXBTMcGY065EB/A
ShW7ev/cTgRZiJwNoOxa+dFXaLcqtYUN/4tUXCNN1VNutpRmkiKB7MeXwHTkvQQ6
b6w786rBovDfbngUOp8A+dqLyN7G5/6xKEtahMY7/UEVx1ECxUzZ0o634q1kip+D
u5WE01unrZnp/wRfLFyWm9fct9e7k6w22XY46Lw0GROmyvSxvVKbdU/hLrjUgIkf
zdB014rFSyGxLoptuMEZOQtQaF5Bxml61wIDAQABo4IBCzCCAQcwDgYDVR0PAQH/
BAQDAgeAMAkGA1UdEwQCMAAwEwYDVR0lBAwwCgYIKwYBBQUHAwIwHQYDVR0OBBYE
FOjbQkzDuu4OT/ber12zYqR0T+42MB8GA1UdIwQYMBaAFIrsq5WET+MHdYZozFm5
K/+oFF3jMEMGCCsGAQUFBwEBBDcwNTAzBggrBgEFBQcwAoYnaHR0cDovL3BraS5z
Y2FkYS5sb2NhbC9jb21wb25lbnQtY2EuY2VyMDgGA1UdHwQxMC8wLaAroCmGJ2h0
dHA6Ly9wa2kuc2NhZGEubG9jYWwvY29tcG9uZW50LWNhLmNybDAWBgNVHSAEDzAN
MAsGCSsGAQQBAAEHCTANBgkqhkiG9w0BAQsFAAOCAgEAXgJuZ4FBELsPRpB7xYr1
dlNkGTVFkIosgAeKe8p2UD7y/27ltMW25S5yqnEIMcfVtW7kcrJnjnNxX2YZQ9HZ
Sibh/Zf29v9RAxj10uYTfsnSdalCcmwAD9yN4mTpqZR6yNurcT//QKz8qaWze3W2
ejQR6cxVdfJL+iI6PLZv94HujwowSwCK/msW0aA2peD4F8AdLLZ/Ua17WfGnAF5W
kJtrZYGGhaZZOq8+GsCAcMJSSo7kmg8elyVcd1WyZZTaiJLd9u21ZkW5Dhgh3Wqf
1xynTh3uhYxuerTwy6dSSq+hY/azgMqI6fxjlgLRrmzB7aWVLerwONzoXEfOJf/o
FxT3iUGrG+U5xIDCav1N8WKRPjNBUs5FCXD6nL44WdIq/h28dYdK3Qtdsd7VaWkq
aLrJpNnYRTLeuGJM2whg+B6pdolG9Y4hbDn/g8DQ/D8gX7m8bctZHx9wAPx3TbuH
VuWRiUsrQtxut1YLGUIXE17dLyWcCWhhyB0sBiR8BRfwfmlsAxgLwi12paomeMUr
sC6Xsk7WYRLxSr50SX3UunjoPC6NFbkb0WkO3NoYMRWOnLKYkgwlr6aTEZt6eGvn
UrSc50cmObXK4DTrhrJOcJre5h4XlrG8uUAn5iLkrS116VeLmQhK4h3+9LIzmWSR
87ATAH1aBp1UWE1kOdt1KIo=
-----END CERTIFICATE-----
