Certificate:
    Data:
        Version: 3 (0x2)
        Serial Number: 3 (0x3)
        Signature Algorithm: sha256WithRSAEncryption
        Issuer: C=US, O=SCADA, OU=Network CA, CN=Network CA
        Validity
            Not Before: Nov 27 12:11:45 2022 GMT
            Not After : Nov 26 12:11:45 2032 GMT
        Subject: C=US, O=SCADA, OU=Identity CA, CN=Identity CA
        Subject Public Key Info:
            Public Key Algorithm: rsaEncryption
                Public-Key: (4096 bit)
                Modulus:
                    00:c9:8e:9e:6a:f0:2e:37:59:be:e1:b0:cb:51:48:
                    26:67:5a:6e:1a:11:f8:23:cb:28:89:a6:e5:df:e1:
                    7d:a2:da:c4:94:bd:f2:96:8e:16:25:f9:c7:51:cf:
                    de:a8:15:62:9a:dc:2e:e3:e4:eb:42:6f:9e:0b:a8:
                    ec:03:b9:30:0d:f7:91:46:31:f3:ad:3d:1b:b9:c3:
                    8b:fd:29:f9:57:3d:c8:6d:f4:95:49:6a:a8:35:e3:
                    7d:3e:ca:f4:6f:90:51:74:5b:8c:1c:8b:4d:74:a1:
                    ea:30:ed:cf:1e:82:b9:93:47:35:02:85:98:82:0f:
                    c9:8f:a4:dd:85:60:ef:32:b8:3d:36:c2:97:7e:35:
                    dc:36:49:ac:6f:d6:69:4b:7c:c1:c8:6d:e9:4a:ad:
                    52:67:5a:8b:6b:9d:f8:be:bd:35:ee:92:5a:a3:69:
                    bb:e1:69:72:29:55:b5:71:a1:e0:ef:f7:da:ec:89:
                    a0:8e:a0:82:fd:03:1a:7d:fd:97:f5:88:8a:d2:e0:
                    12:9c:33:4d:7b:33:6a:77:4f:30:65:2e:0a:23:06:
                    13:b4:ff:ca:d9:af:10:4f:ba:12:c5:50:78:bb:25:
                    d9:22:b2:c1:af:fc:13:88:5a:62:e3:2e:9f:de:af:
                    1f:9b:3a:c6:73:9e:6c:ee:10:62:b7:d7:47:22:21:
                    f6:b2:7f:e6:48:f4:59:66:02:89:d2:ff:ab:e7:23:
                    e0:dd:f4:cd:71:46:cb:16:b1:b1:53:79:30:88:5c:
                    6d:51:f4:e5:5a:7c:46:87:28:f8:da:fd:c4:67:69:
                    4b:4f:ff:a0:a9:e0:59:91:f5:53:71:65:a1:25:5f:
                    fd:5e:9b:32:65:f6:19:58:2b:6e:38:86:da:5e:4b:
                    00:94:e3:84:7c:f2:0a:a6:06:20:ca:af:cd:2f:34:
                    22:da:6e:f0:c6:ac:94:8d:05:d3:91:c9:d7:2a:5c:
                    8f:b6:d3:70:9e:eb:6a:5b:d6:77:6c:23:c8:f2:7f:
                    38:d6:d1:97:01:ce:69:e5:c5:8c:34:8d:e5:15:fd:
                    ee:9b:45:49:9c:1c:e3:32:d3:78:7e:06:30:8e:c1:
                    40:06:d4:7f:4c:25:78:52:e6:32:2e:a7:31:93:46:
                    68:bb:d7:d3:52:f9:d1:03:ae:78:08:26:65:a2:00:
                    37:58:57:6a:0e:e2:bd:64:e6:e8:45:d3:3b:99:1e:
                    ad:8c:ae:93:9b:4b:f9:5b:3c:aa:e7:7b:59:b9:f8:
                    9b:81:e8:d6:21:78:87:72:86:28:96:1d:7d:bf:70:
                    f9:b6:d0:ea:b4:2d:8f:60:6c:dd:05:88:c6:b1:4c:
                    4a:80:e7:32:bb:33:8d:d4:41:4e:2d:27:62:cb:b5:
                    0a:81:31
                Exponent: 65537 (0x10001)
        X509v3 extensions:
            X509v3 Key Usage: critical
                Certificate Sign, CRL Sign
            X509v3 Basic Constraints: critical
                CA:TRUE, pathlen:0
            X509v3 Subject Key Identifier: 
                0B:0C:16:EB:49:CB:F0:11:01:3E:BB:68:41:2E:6D:59:6A:CC:51:02
            X509v3 Authority Key Identifier: 
                1C:D4:4B:6F:C2:8A:16:45:ED:51:A4:28:7C:EB:FD:53:0B:4F:1E:BF
            Authority Information Access: 
                CA Issuers - URI:http://pki.scada.local/network-ca.cer
            X509v3 CRL Distribution Points: 
                Full Name:
                  URI:http://pki.scada.local/network-ca.crl
            X509v3 Certificate Policies: 
                Policy: Blue Medium Assurance
                Policy: Blue Medium Device Assurance
    Signature Algorithm: sha256WithRSAEncryption
    Signature Value:
        11:fb:8f:45:35:2d:16:05:7f:7f:00:de:3b:78:ef:69:c0:dc:
        98:62:c0:67:71:10:b0:2f:bf:f3:8b:46:7c:62:d2:cd:c4:3f:
        d8:c5:43:8e:eb:a7:f7:f8:77:b1:75:a7:33:52:ae:83:ac:81:
        9d:27:f3:14:05:74:1f:37:57:e3:a8:f1:62:32:5e:65:c0:05:
        1f:45:e3:11:35:bf:40:a9:73:90:e7:14:50:14:93:19:07:73:
        e8:72:72:79:9c:de:41:f5:8b:2c:af:f7:47:4c:ac:ca:08:a3:
        89:af:e1:aa:55:8a:88:ad:35:74:d8:98:ae:d3:53:9a:98:f3:
        cc:d8:18:0c:d2:d5:a8:29:21:73:62:57:6e:cb:d6:dc:3e:a7:
        6e:8b:b0:8d:6c:26:59:37:d5:13:23:a6:5b:d0:d1:23:ab:c1:
        56:1f:4f:11:ac:16:42:de:11:0c:6b:8a:23:57:95:e0:94:b7:
        bf:be:9b:eb:35:73:b9:b3:90:72:c3:77:ec:4c:6e:82:7a:42:
        f6:de:c2:bf:38:7b:e6:ff:71:d8:67:3b:c4:d5:28:e7:ea:17:
        57:83:37:65:9b:59:5c:0f:78:ad:9e:73:f0:47:4d:de:01:34:
        ce:d4:45:46:66:e1:5a:db:3d:64:8a:09:1d:d6:d1:a8:c7:46:
        26:e8:9a:5c:99:67:eb:3f:33:35:9f:8f:0a:02:92:a3:2c:49:
        65:8a:eb:05:93:60:27:38:d4:2e:f2:ae:a7:39:a2:77:af:ab:
        e3:e1:0c:71:51:da:bc:3f:61:05:d3:63:5a:20:5b:fa:ec:6c:
        ab:b5:e7:84:0b:f0:77:4c:79:1f:07:51:88:b5:70:1d:e4:df:
        fb:20:bc:cc:13:10:e6:d3:33:10:d3:8d:eb:6f:81:7b:99:52:
        55:01:9e:77:e6:ca:c2:b5:14:8b:db:7f:2d:96:2b:6f:c5:da:
        3d:1b:20:b2:2e:d9:b5:d0:68:a7:62:f9:87:cf:89:05:85:ed:
        d1:07:47:5b:d7:18:60:fd:5c:fb:8c:dc:05:5c:df:9b:82:b8:
        d1:73:f4:61:12:7c:c7:90:db:3e:19:e0:3f:5f:bd:a3:97:b8:
        12:48:7d:e1:83:27:9d:28:0b:1e:b9:4e:34:48:95:9a:72:1d:
        8b:e3:d9:d9:b4:fa:c5:50:bd:e5:5e:23:96:a4:e3:78:0d:d5:
        3d:ea:83:25:3d:e6:6d:a1:84:4b:b8:f6:f6:94:eb:02:dd:88:
        20:48:0f:68:51:14:06:46:aa:64:42:6d:68:78:f5:91:dd:76:
        d7:d6:96:19:8c:1a:92:f1:94:30:94:22:5d:91:93:e5:1e:7e:
        76:b0:d6:48:76:12:d8:1d
-----BEGIN CERTIFICATE-----
MIIGFTCCA/2gAwIBAgIBAzANBgkqhkiG9w0BAQsFADBHMQswCQYDVQQGEwJVUzEO
MAwGA1UECgwFU0NBREExEzARBgNVBAsMCk5ldHdvcmsgQ0ExEzARBgNVBAMMCk5l
dHdvcmsgQ0EwHhcNMjIxMTI3MTIxMTQ1WhcNMzIxMTI2MTIxMTQ1WjBJMQswCQYD
VQQGEwJVUzEOMAwGA1UECgwFU0NBREExFDASBgNVBAsMC0lkZW50aXR5IENBMRQw
EgYDVQQDDAtJZGVudGl0eSBDQTCCAiIwDQYJKoZIhvcNAQEBBQADggIPADCCAgoC
ggIBAMmOnmrwLjdZvuGwy1FIJmdabhoR+CPLKImm5d/hfaLaxJS98paOFiX5x1HP
3qgVYprcLuPk60Jvnguo7AO5MA33kUYx8609G7nDi/0p+Vc9yG30lUlqqDXjfT7K
9G+QUXRbjByLTXSh6jDtzx6CuZNHNQKFmIIPyY+k3YVg7zK4PTbCl3413DZJrG/W
aUt8wcht6UqtUmdai2ud+L69Ne6SWqNpu+FpcilVtXGh4O/32uyJoI6ggv0DGn39
l/WIitLgEpwzTXszandPMGUuCiMGE7T/ytmvEE+6EsVQeLsl2SKywa/8E4haYuMu
n96vH5s6xnOebO4QYrfXRyIh9rJ/5kj0WWYCidL/q+cj4N30zXFGyxaxsVN5MIhc
bVH05Vp8Roco+Nr9xGdpS0//oKngWZH1U3FloSVf/V6bMmX2GVgrbjiG2l5LAJTj
hHzyCqYGIMqvzS80Itpu8MaslI0F05HJ1ypcj7bTcJ7ralvWd2wjyPJ/ONbRlwHO
aeXFjDSN5RX97ptFSZwc4zLTeH4GMI7BQAbUf0wleFLmMi6nMZNGaLvX01L50QOu
eAgmZaIAN1hXag7ivWTm6EXTO5kerYyuk5tL+Vs8qud7Wbn4m4Ho1iF4h3KGKJYd
fb9w+bbQ6rQtj2Bs3QWIxrFMSoDnMrszjdRBTi0nYsu1CoExAgMBAAGjggEIMIIB
BDAOBgNVHQ8BAf8EBAMCAQYwEgYDVR0TAQH/BAgwBgEB/wIBADAdBgNVHQ4EFgQU
CwwW60nL8BEBPrtoQS5tWWrMUQIwHwYDVR0jBBgwFoAUHNRLb8KKFkXtUaQofOv9
UwtPHr8wQQYIKwYBBQUHAQEENTAzMDEGCCsGAQUFBzAChiVodHRwOi8vcGtpLnNj
YWRhLmxvY2FsL25ldHdvcmstY2EuY2VyMDYGA1UdHwQvMC0wK6ApoCeGJWh0dHA6
Ly9wa2kuc2NhZGEubG9jYWwvbmV0d29yay1jYS5jcmwwIwYDVR0gBBwwGjALBgkr
BgEEAQABBwgwCwYJKwYBBAEAAQcJMA0GCSqGSIb3DQEBCwUAA4ICAQAR+49FNS0W
BX9/AN47eO9pwNyYYsBncRCwL7/zi0Z8YtLNxD/YxUOO66f3+HexdaczUq6DrIGd
J/MUBXQfN1fjqPFiMl5lwAUfReMRNb9AqXOQ5xRQFJMZB3PocnJ5nN5B9Yssr/dH
TKzKCKOJr+GqVYqIrTV02Jiu01OamPPM2BgM0tWoKSFzYlduy9bcPqdui7CNbCZZ
N9UTI6Zb0NEjq8FWH08RrBZC3hEMa4ojV5XglLe/vpvrNXO5s5Byw3fsTG6CekL2
3sK/OHvm/3HYZzvE1Sjn6hdXgzdlm1lcD3itnnPwR03eATTO1EVGZuFa2z1kigkd
1tGox0Ym6JpcmWfrPzM1n48KApKjLElliusFk2AnONQu8q6nOaJ3r6vj4QxxUdq8
P2EF02NaIFv67GyrteeEC/B3THkfB1GItXAd5N/7ILzMExDm0zMQ043rb4F7mVJV
AZ535srCtRSL238tlitvxdo9GyCyLtm10GinYvmHz4kFhe3RB0db1xhg/Vz7jNwF
XN+bgrjRc/RhEnzHkNs+GeA/X72jl7gSSH3hgyedKAseuU40SJWach2L49nZtPrF
UL3lXiOWpON4DdU96oMlPeZtoYRLuPb2lOsC3YggSA9oURQGRqpkQm1oePWR3XbX
1pYZjBqS8ZQwlCJdkZPlHn52sNZIdhLYHQ==
-----END CERTIFICATE-----
Certificate:
    Data:
        Version: 3 (0x2)
        Serial Number: 4 (0x4)
        Signature Algorithm: sha256WithRSAEncryption
        Issuer: C=US, O=SCADA, OU=Root CA, CN=Root CA
        Validity
            Not Before: Nov 27 12:11:43 2022 GMT
            Not After : Dec 31 23:59:59 2030 GMT
        Subject: C=US, O=SCADA, OU=Network CA, CN=Network CA
        Subject Public Key Info:
            Public Key Algorithm: rsaEncryption
                Public-Key: (4096 bit)
                Modulus:
                    00:ae:e1:4d:18:39:6c:fb:a0:bb:0a:6b:41:65:c2:
                    fe:2b:7f:8c:e7:13:8a:f4:75:82:97:ca:1f:a2:10:
                    8f:51:ba:c7:98:d9:99:e4:97:73:6a:22:5b:fd:6a:
                    a8:74:ac:05:a8:9c:4c:91:89:96:6b:1c:5a:df:fc:
                    b9:b0:46:7b:9d:48:8c:d4:17:9f:9a:d3:6d:be:54:
                    38:54:2b:c6:b4:f4:6c:55:22:1c:ea:06:79:1a:ea:
                    28:f7:53:33:30:58:dc:21:51:66:6e:29:28:52:f4:
                    c6:f6:00:31:a3:bf:75:5c:5a:1e:e8:4c:e5:63:b7:
                    2e:7b:3a:c1:34:99:85:5d:27:5d:f7:0d:0c:26:41:
                    d3:be:59:76:08:99:c7:3d:f9:ff:da:72:d3:f1:43:
                    1b:07:df:d9:51:78:4a:9f:5c:44:c5:2a:73:5f:be:
                    83:8f:fc:d1:e9:e4:e6:76:85:4c:c7:b2:16:cd:b4:
                    ec:30:cf:8a:d2:78:9e:36:73:ba:77:c9:23:2b:df:
                    5d:f7:fa:59:00:72:40:75:8f:ec:82:6a:c8:6c:c2:
                    91:1f:44:b3:97:36:2b:b6:9d:89:43:78:25:dc:fd:
                    b8:c9:5c:d5:1c:ec:dc:86:77:c7:13:dc:6a:f5:71:
                    cb:1b:91:a1:00:40:66:31:29:5e:47:6f:f2:f8:45:
                    35:7f:c1:39:03:8b:2a:2e:7d:5d:a8:54:bd:14:54:
                    a7:2a:a7:28:f2:e0:b8:31:c5:40:0d:63:7b:45:17:
                    a0:29:cf:9a:c3:98:15:0c:92:d4:eb:d6:df:39:1e:
                    b6:4c:5a:0d:51:0e:23:f1:54:3a:6d:66:77:6b:ab:
                    3e:27:b4:5a:3b:33:52:89:5e:d6:04:2c:bc:f8:f4:
                    6d:34:32:0b:90:5b:de:e4:ba:57:fd:ab:0b:b2:3f:
                    17:2f:14:8d:49:38:60:d8:a9:40:5a:a1:89:f2:b4:
                    de:23:2a:e7:90:b0:7a:6d:48:ad:b2:47:9c:74:c0:
                    68:72:5e:b3:15:dd:ca:2a:8a:a9:f9:2c:94:9d:40:
                    12:9f:d9:c3:22:f9:99:ae:d0:4d:45:87:e7:e9:0a:
                    56:05:8f:75:6b:e1:da:ce:61:2e:4c:ba:a8:1e:8a:
                    69:a5:62:cb:84:37:6f:d7:94:a3:5c:51:02:a8:f7:
                    c7:4c:7c:98:fb:2b:68:e5:e6:14:fc:d5:46:e8:d5:
                    04:12:e6:1c:a7:03:28:f1:d6:4f:c1:99:d9:62:f5:
                    41:be:f9:50:a8:65:92:68:5c:a2:18:fa:75:78:4f:
                    32:50:c8:94:9c:be:a4:eb:89:7d:d8:10:76:c3:51:
                    11:7d:bd:73:f2:82:69:ba:9c:42:fc:a2:9c:ec:8d:
                    04:16:15
                Exponent: 65537 (0x10001)
        X509v3 extensions:
            X509v3 Key Usage: critical
                Certificate Sign, CRL Sign
            X509v3 Basic Constraints: critical
                CA:TRUE
            X509v3 Subject Key Identifier: 
                1C:D4:4B:6F:C2:8A:16:45:ED:51:A4:28:7C:EB:FD:53:0B:4F:1E:BF
            X509v3 Authority Key Identifier: 
                5C:16:CB:E9:EC:68:EF:E1:33:A0:6F:A0:F9:33:3C:EF:21:05:B6:5A
            Authority Information Access: 
                CA Issuers - URI:http://pki.scada.local/root-ca.cer
            X509v3 CRL Distribution Points: 
                Full Name:
                  URI:http://pki.scada.local/root-ca.crl
            X509v3 Certificate Policies: 
                Policy: Blue Medium Assurance
                Policy: Blue Medium Device Assurance
    Signature Algorithm: sha256WithRSAEncryption
    Signature Value:
        21:d0:0c:25:6e:57:e1:67:de:c2:61:9e:ff:87:88:b1:cf:b3:
        22:75:ec:73:53:20:b4:3d:34:8b:22:df:4d:ad:e3:90:cb:38:
        a9:a5:56:13:9c:5e:42:63:94:4e:e5:ed:79:49:68:6b:44:0b:
        15:13:92:e6:f2:dd:3c:4a:90:7b:6e:ff:c7:a1:79:49:02:d2:
        44:15:a4:c9:ab:80:8c:06:51:60:1f:e8:f5:bc:15:cf:51:0a:
        63:65:2a:90:5c:e0:f4:f3:6a:93:34:e4:46:1c:9b:b9:9d:b1:
        d5:2f:75:8e:34:c5:de:06:d1:e9:56:b0:8f:b2:f8:ba:46:88:
        ec:36:f3:ec:ca:a8:75:f5:5a:5c:00:58:2a:55:c1:b2:9c:9b:
        03:c6:13:27:5e:b4:b5:20:eb:56:93:24:d3:91:82:b0:74:2a:
        31:72:e5:86:5b:91:a1:4a:06:a3:2f:42:a7:72:48:3d:bc:e8:
        9c:bc:4c:86:9c:d3:7f:3d:4d:52:12:48:59:64:12:ff:bd:50:
        3c:7d:47:f6:7e:a7:75:1d:62:20:11:71:d0:d5:c2:09:d1:3e:
        08:39:ea:9f:2d:b0:af:f8:a9:60:bd:86:47:1c:7b:09:00:3d:
        c9:6c:98:af:4a:15:8b:ad:2e:4b:25:5d:ab:90:87:9f:5b:ee:
        f8:d3:1b:cb:6d:22:0b:9a:45:7d:0a:df:ca:1f:e8:86:08:eb:
        d2:75:72:f3:55:ca:d1:4d:93:1c:bf:79:6f:b7:ef:bf:5a:cc:
        6e:b5:7a:b3:69:91:c7:eb:53:36:07:96:21:82:50:35:57:6f:
        0c:d8:9f:56:a7:88:e3:57:c9:d3:97:c9:e7:3d:a3:40:82:00:
        5d:bc:68:1a:ad:10:53:37:18:c7:9e:49:30:f9:4d:c4:c2:e8:
        b3:e4:56:e1:eb:ae:3a:48:bf:92:4d:2a:45:db:92:2f:a6:32:
        c7:88:25:e5:1e:74:2d:d1:97:da:45:8a:3d:b6:bc:3f:ff:b6:
        80:db:0d:90:57:c3:3d:f8:f8:1a:33:f7:5b:52:1a:86:c2:3e:
        8a:af:ba:1c:1a:a2:88:b8:aa:13:14:15:ea:f4:fd:85:fe:62:
        9b:5a:82:39:0d:55:61:06:07:37:6e:e9:ab:be:5d:f7:9d:75:
        39:15:97:7c:b9:09:4c:bd:fb:29:3e:5a:78:95:f1:58:7a:58:
        19:09:ec:5e:a0:f6:ff:a2:91:c6:f7:25:aa:d6:9a:ba:0d:83:
        54:4a:70:76:a1:2a:2e:f5:a1:82:c6:ba:bf:69:03:3d:dd:f4:
        9f:4a:bf:e7:13:04:56:ce:9b:7a:71:cb:6c:ef:af:12:d8:97:
        57:3b:48:c0:43:d1:d7:54
-----BEGIN CERTIFICATE-----
MIIGAjCCA+qgAwIBAgIBBDANBgkqhkiG9w0BAQsFADBBMQswCQYDVQQGEwJVUzEO
MAwGA1UECgwFU0NBREExEDAOBgNVBAsMB1Jvb3QgQ0ExEDAOBgNVBAMMB1Jvb3Qg
Q0EwHhcNMjIxMTI3MTIxMTQzWhcNMzAxMjMxMjM1OTU5WjBHMQswCQYDVQQGEwJV
UzEOMAwGA1UECgwFU0NBREExEzARBgNVBAsMCk5ldHdvcmsgQ0ExEzARBgNVBAMM
Ck5ldHdvcmsgQ0EwggIiMA0GCSqGSIb3DQEBAQUAA4ICDwAwggIKAoICAQCu4U0Y
OWz7oLsKa0Flwv4rf4znE4r0dYKXyh+iEI9RuseY2Znkl3NqIlv9aqh0rAWonEyR
iZZrHFrf/LmwRnudSIzUF5+a022+VDhUK8a09GxVIhzqBnka6ij3UzMwWNwhUWZu
KShS9Mb2ADGjv3VcWh7oTOVjty57OsE0mYVdJ133DQwmQdO+WXYImcc9+f/actPx
QxsH39lReEqfXETFKnNfvoOP/NHp5OZ2hUzHshbNtOwwz4rSeJ42c7p3ySMr3133
+lkAckB1j+yCashswpEfRLOXNiu2nYlDeCXc/bjJXNUc7NyGd8cT3Gr1ccsbkaEA
QGYxKV5Hb/L4RTV/wTkDiyoufV2oVL0UVKcqpyjy4LgxxUANY3tFF6Apz5rDmBUM
ktTr1t85HrZMWg1RDiPxVDptZndrqz4ntFo7M1KJXtYELLz49G00MguQW97kulf9
qwuyPxcvFI1JOGDYqUBaoYnytN4jKueQsHptSK2yR5x0wGhyXrMV3coqiqn5LJSd
QBKf2cMi+Zmu0E1Fh+fpClYFj3Vr4drOYS5MuqgeimmlYsuEN2/XlKNcUQKo98dM
fJj7K2jl5hT81Ubo1QQS5hynAyjx1k/Bmdli9UG++VCoZZJoXKIY+nV4TzJQyJSc
vqTriX3YEHbDURF9vXPygmm6nEL8opzsjQQWFQIDAQABo4H+MIH7MA4GA1UdDwEB
/wQEAwIBBjAPBgNVHRMBAf8EBTADAQH/MB0GA1UdDgQWBBQc1EtvwooWRe1RpCh8
6/1TC08evzAfBgNVHSMEGDAWgBRcFsvp7Gjv4TOgb6D5MzzvIQW2WjA+BggrBgEF
BQcBAQQyMDAwLgYIKwYBBQUHMAKGImh0dHA6Ly9wa2kuc2NhZGEubG9jYWwvcm9v
dC1jYS5jZXIwMwYDVR0fBCwwKjAooCagJIYiaHR0cDovL3BraS5zY2FkYS5sb2Nh
bC9yb290LWNhLmNybDAjBgNVHSAEHDAaMAsGCSsGAQQBAAEHCDALBgkrBgEEAQAB
BwkwDQYJKoZIhvcNAQELBQADggIBACHQDCVuV+Fn3sJhnv+HiLHPsyJ17HNTILQ9
NIsi302t45DLOKmlVhOcXkJjlE7l7XlJaGtECxUTkuby3TxKkHtu/8eheUkC0kQV
pMmrgIwGUWAf6PW8Fc9RCmNlKpBc4PTzapM05EYcm7mdsdUvdY40xd4G0elWsI+y
+LpGiOw28+zKqHX1WlwAWCpVwbKcmwPGEydetLUg61aTJNORgrB0KjFy5YZbkaFK
BqMvQqdySD286Jy8TIac0389TVISSFlkEv+9UDx9R/Z+p3UdYiARcdDVwgnRPgg5
6p8tsK/4qWC9hkccewkAPclsmK9KFYutLkslXauQh59b7vjTG8ttIguaRX0K38of
6IYI69J1cvNVytFNkxy/eW+3779azG61erNpkcfrUzYHliGCUDVXbwzYn1aniONX
ydOXyec9o0CCAF28aBqtEFM3GMeeSTD5TcTC6LPkVuHrrjpIv5JNKkXbki+mMseI
JeUedC3Rl9pFij22vD//toDbDZBXwz34+Boz91tSGobCPoqvuhwaooi4qhMUFer0
/YX+YptagjkNVWEGBzdu6au+XfeddTkVl3y5CUy9+yk+WniV8Vh6WBkJ7F6g9v+i
kcb3JarWmroNg1RKcHahKi71oYLGur9pAz3d9J9Kv+cTBFbOm3pxy2zvrxLYl1c7
SMBD0ddU
-----END CERTIFICATE-----
Certificate:
    Data:
        Version: 3 (0x2)
        Serial Number: 3 (0x3)
        Signature Algorithm: sha256WithRSAEncryption
        Issuer: C=US, O=SCADA, OU=Root CA, CN=Root CA
        Validity
            Not Before: Nov 27 12:11:42 2022 GMT
            Not After : Nov 26 12:11:42 2032 GMT
        Subject: C=US, O=SCADA, OU=Root CA, CN=Root CA
        Subject Public Key Info:
            Public Key Algorithm: rsaEncryption
                Public-Key: (4096 bit)
                Modulus:
                    00:ce:50:ec:cc:94:ac:f1:fb:87:c6:20:52:2c:65:
                    cf:70:c3:14:b5:8c:50:11:93:89:e0:b8:cf:b1:e7:
                    d4:4a:a7:4e:11:67:9b:1c:6f:47:87:a7:b9:7a:e2:
                    54:c0:03:be:eb:5d:72:b1:ba:83:45:9d:76:c9:71:
                    2e:ba:df:c5:05:a1:6d:d4:cb:12:19:76:da:65:54:
                    a4:3c:41:5d:6d:5a:0e:e4:f5:9b:13:a6:3a:7f:52:
                    28:80:7f:d0:91:9e:f9:99:3d:3d:04:44:ac:36:07:
                    c2:ef:cd:b6:30:27:65:ba:a1:02:b4:eb:50:41:e9:
                    d9:de:8a:22:d9:07:4f:81:e0:f3:27:67:5f:c7:0a:
                    a7:c0:02:03:09:a2:e8:ef:fa:72:a0:18:aa:6c:49:
                    15:8d:53:69:b7:4f:c8:50:f3:a3:96:6f:43:2b:1a:
                    7b:09:82:8f:d6:19:0d:4b:5d:44:49:af:ee:be:a1:
                    71:ca:64:e9:7c:ca:66:2b:4c:e8:22:20:0e:10:26:
                    f1:cf:ed:59:1f:5b:86:c8:3b:9d:4f:44:ac:d7:69:
                    53:86:41:e6:b6:15:97:0c:6c:60:66:50:a2:d0:f6:
                    d6:25:a2:e7:ed:37:b7:df:b4:98:5e:cd:6d:c2:d9:
                    d9:46:b3:88:6b:f1:a5:c9:e5:b9:83:9e:18:f1:f4:
                    b0:39:05:87:42:97:1a:ef:50:ee:03:20:ae:27:1d:
                    8a:8e:c7:bd:21:e7:54:cd:45:c9:c8:63:75:34:62:
                    6b:b8:66:3f:5c:2c:c7:ce:53:23:51:ed:7c:59:1e:
                    2f:44:c0:b3:a3:38:9d:9a:ea:4a:68:42:ca:94:2c:
                    30:38:c2:50:19:78:77:2d:43:88:f7:c3:2f:45:3a:
                    e1:0c:ba:2b:e5:55:fa:a6:a5:6a:f4:33:ee:00:a2:
                    b9:75:68:1b:ee:31:3e:6f:43:40:d9:5f:3a:c1:b3:
                    41:70:74:b7:43:41:32:c3:5a:b5:80:4e:4c:7e:47:
                    33:92:c5:30:30:97:20:a5:65:0b:90:78:c4:f5:3b:
                    6a:e1:b3:76:6a:0b:36:ab:9e:b8:b8:6a:6a:3c:13:
                    74:29:17:9e:4b:22:d5:63:31:5e:6a:3b:2f:c0:27:
                    b2:ca:d5:cd:18:7d:cc:94:d2:91:2a:a0:be:d3:c5:
                    cf:07:99:14:81:00:06:72:11:cd:e6:35:79:18:f6:
                    c6:20:71:5a:f2:30:52:0b:7f:17:8d:c3:53:f5:e7:
                    7a:6f:2a:4b:60:44:c9:a9:02:2c:d9:27:eb:9e:cf:
                    5e:24:87:09:fc:d1:a2:32:a0:4d:97:85:12:40:c1:
                    4f:41:56:94:87:60:4e:03:cd:c3:fb:39:ce:4f:f0:
                    1a:87:0f
                Exponent: 65537 (0x10001)
        X509v3 extensions:
            X509v3 Key Usage: critical
                Certificate Sign, CRL Sign
            X509v3 Basic Constraints: critical
                CA:TRUE
            X509v3 Subject Key Identifier: 
                5C:16:CB:E9:EC:68:EF:E1:33:A0:6F:A0:F9:33:3C:EF:21:05:B6:5A
            X509v3 Authority Key Identifier: 
                5C:16:CB:E9:EC:68:EF:E1:33:A0:6F:A0:F9:33:3C:EF:21:05:B6:5A
    Signature Algorithm: sha256WithRSAEncryption
    Signature Value:
        3c:66:c1:70:91:e2:d2:74:c0:cb:29:a0:1d:fc:c2:02:e8:8b:
        3c:5a:93:68:07:ce:dd:88:98:8f:86:c1:b6:c1:32:8b:d2:20:
        69:ad:15:8d:1e:01:b1:63:ca:20:c6:ab:c6:4c:cb:87:17:67:
        ae:f3:38:79:6e:3a:f8:6b:db:f5:39:c9:b5:5f:3e:b3:f7:7a:
        f7:bf:fd:a2:44:e1:30:ed:f1:41:f2:88:35:99:b7:78:8d:78:
        90:69:bc:8f:c1:59:e7:cc:ff:09:3d:c2:c0:81:92:c4:97:85:
        8f:2e:95:54:08:13:1b:45:c8:f3:72:d6:e6:25:6c:bd:28:aa:
        b7:5a:c5:18:a5:09:32:54:b3:57:93:6a:bd:c9:64:c3:cd:ef:
        fb:fc:61:0c:72:32:ba:76:86:6e:bc:dc:cb:36:2d:70:df:1b:
        ee:f8:27:94:d7:45:47:37:db:b5:ef:a0:12:25:01:b6:e7:ac:
        0e:30:fd:74:ce:af:07:bd:53:db:99:37:24:aa:04:60:59:c3:
        59:7e:56:68:97:c7:36:14:df:38:ee:4d:ef:58:00:2e:24:55:
        c0:3e:c2:52:5e:fb:af:23:2d:e7:d3:b8:76:3e:3c:2e:f9:72:
        50:7b:16:73:68:5f:40:17:b5:20:20:5a:49:71:ce:df:9e:0e:
        73:b1:73:0a:56:05:69:9e:27:3e:57:cb:c1:14:31:3d:8f:e1:
        b4:c8:1e:52:15:79:2f:55:3c:4a:94:ab:8a:ab:dd:05:9f:ee:
        9b:5d:5a:9b:db:7d:bb:1a:97:15:35:05:a5:00:bf:a6:27:01:
        c2:c6:b8:d8:90:4a:c3:80:e5:da:f9:2a:a3:e7:2a:6d:8c:e9:
        8c:63:c5:f1:0b:4d:3f:12:0c:49:d7:25:84:e2:54:c0:2c:0f:
        4d:34:2b:82:58:a1:fb:b2:00:25:94:20:03:97:64:a1:2b:f1:
        8a:cb:1d:b4:c1:ce:4d:5c:a9:bf:ba:a9:3a:4d:d4:d6:d6:86:
        4d:50:ed:61:51:40:e4:db:c8:1d:eb:4e:6c:2b:8d:0b:7a:8f:
        d6:7c:6f:39:27:7b:5c:a2:a5:2d:3c:2b:c5:52:cb:04:a7:d3:
        db:f3:ee:33:c8:1d:9a:9f:c6:43:c1:b0:c0:80:b6:69:e1:2c:
        13:71:7e:67:da:b5:88:8f:01:df:89:7a:4a:d5:51:f3:69:f0:
        70:1c:8b:1c:87:25:15:b3:51:f4:76:f1:41:e1:61:e4:de:e0:
        f0:c2:f6:d9:53:9a:75:36:cf:9b:c0:3e:e3:1b:e8:56:9b:26:
        e3:1e:ad:16:e2:4c:20:b5:b7:2e:c2:3e:e4:35:99:ce:36:40:
        d7:f2:01:64:bf:b2:28:55
-----BEGIN CERTIFICATE-----
MIIFYDCCA0igAwIBAgIBAzANBgkqhkiG9w0BAQsFADBBMQswCQYDVQQGEwJVUzEO
MAwGA1UECgwFU0NBREExEDAOBgNVBAsMB1Jvb3QgQ0ExEDAOBgNVBAMMB1Jvb3Qg
Q0EwHhcNMjIxMTI3MTIxMTQyWhcNMzIxMTI2MTIxMTQyWjBBMQswCQYDVQQGEwJV
UzEOMAwGA1UECgwFU0NBREExEDAOBgNVBAsMB1Jvb3QgQ0ExEDAOBgNVBAMMB1Jv
b3QgQ0EwggIiMA0GCSqGSIb3DQEBAQUAA4ICDwAwggIKAoICAQDOUOzMlKzx+4fG
IFIsZc9wwxS1jFARk4nguM+x59RKp04RZ5scb0eHp7l64lTAA77rXXKxuoNFnXbJ
cS6638UFoW3UyxIZdtplVKQ8QV1tWg7k9ZsTpjp/UiiAf9CRnvmZPT0ERKw2B8Lv
zbYwJ2W6oQK061BB6dneiiLZB0+B4PMnZ1/HCqfAAgMJoujv+nKgGKpsSRWNU2m3
T8hQ86OWb0MrGnsJgo/WGQ1LXURJr+6+oXHKZOl8ymYrTOgiIA4QJvHP7VkfW4bI
O51PRKzXaVOGQea2FZcMbGBmUKLQ9tYlouftN7fftJhezW3C2dlGs4hr8aXJ5bmD
nhjx9LA5BYdClxrvUO4DIK4nHYqOx70h51TNRcnIY3U0Ymu4Zj9cLMfOUyNR7XxZ
Hi9EwLOjOJ2a6kpoQsqULDA4wlAZeHctQ4j3wy9FOuEMuivlVfqmpWr0M+4Aorl1
aBvuMT5vQ0DZXzrBs0FwdLdDQTLDWrWATkx+RzOSxTAwlyClZQuQeMT1O2rhs3Zq
Czarnri4amo8E3QpF55LItVjMV5qOy/AJ7LK1c0YfcyU0pEqoL7Txc8HmRSBAAZy
Ec3mNXkY9sYgcVryMFILfxeNw1P153pvKktgRMmpAizZJ+uez14khwn80aIyoE2X
hRJAwU9BVpSHYE4DzcP7Oc5P8BqHDwIDAQABo2MwYTAOBgNVHQ8BAf8EBAMCAQYw
DwYDVR0TAQH/BAUwAwEB/zAdBgNVHQ4EFgQUXBbL6exo7+EzoG+g+TM87yEFtlow
HwYDVR0jBBgwFoAUXBbL6exo7+EzoG+g+TM87yEFtlowDQYJKoZIhvcNAQELBQAD
ggIBADxmwXCR4tJ0wMspoB38wgLoizxak2gHzt2ImI+GwbbBMovSIGmtFY0eAbFj
yiDGq8ZMy4cXZ67zOHluOvhr2/U5ybVfPrP3eve//aJE4TDt8UHyiDWZt3iNeJBp
vI/BWefM/wk9wsCBksSXhY8ulVQIExtFyPNy1uYlbL0oqrdaxRilCTJUs1eTar3J
ZMPN7/v8YQxyMrp2hm683Ms2LXDfG+74J5TXRUc327XvoBIlAbbnrA4w/XTOrwe9
U9uZNySqBGBZw1l+VmiXxzYU3zjuTe9YAC4kVcA+wlJe+68jLefTuHY+PC75clB7
FnNoX0AXtSAgWklxzt+eDnOxcwpWBWmeJz5Xy8EUMT2P4bTIHlIVeS9VPEqUq4qr
3QWf7ptdWpvbfbsalxU1BaUAv6YnAcLGuNiQSsOA5dr5KqPnKm2M6YxjxfELTT8S
DEnXJYTiVMAsD000K4JYofuyACWUIAOXZKEr8YrLHbTBzk1cqb+6qTpN1NbWhk1Q
7WFRQOTbyB3rTmwrjQt6j9Z8bzkne1yipS08K8VSywSn09vz7jPIHZqfxkPBsMCA
tmnhLBNxfmfatYiPAd+JekrVUfNp8HAcixyHJRWzUfR28UHhYeTe4PDC9tlTmnU2
z5vAPuMb6FabJuMerRbiTCC1ty7CPuQ1mc42QNfyAWS/sihV
-----END CERTIFICATE-----
