Certificate:
    Data:
        Version: 3 (0x2)
        Serial Number: 3 (0x3)
        Signature Algorithm: sha256WithRSAEncryption
        Issuer: C=US, O=SCADA, OU=Root CA, CN=Root CA
        Validity
            Not Before: Nov 27 12:11:42 2022 GMT
            Not After : Nov 26 12:11:42 2032 GMT
        Subject: C=US, O=SCADA, OU=Root CA, CN=Root CA
        Subject Public Key Info:
            Public Key Algorithm: rsaEncryption
                Public-Key: (4096 bit)
                Modulus:
                    00:ce:50:ec:cc:94:ac:f1:fb:87:c6:20:52:2c:65:
                    cf:70:c3:14:b5:8c:50:11:93:89:e0:b8:cf:b1:e7:
                    d4:4a:a7:4e:11:67:9b:1c:6f:47:87:a7:b9:7a:e2:
                    54:c0:03:be:eb:5d:72:b1:ba:83:45:9d:76:c9:71:
                    2e:ba:df:c5:05:a1:6d:d4:cb:12:19:76:da:65:54:
                    a4:3c:41:5d:6d:5a:0e:e4:f5:9b:13:a6:3a:7f:52:
                    28:80:7f:d0:91:9e:f9:99:3d:3d:04:44:ac:36:07:
                    c2:ef:cd:b6:30:27:65:ba:a1:02:b4:eb:50:41:e9:
                    d9:de:8a:22:d9:07:4f:81:e0:f3:27:67:5f:c7:0a:
                    a7:c0:02:03:09:a2:e8:ef:fa:72:a0:18:aa:6c:49:
                    15:8d:53:69:b7:4f:c8:50:f3:a3:96:6f:43:2b:1a:
                    7b:09:82:8f:d6:19:0d:4b:5d:44:49:af:ee:be:a1:
                    71:ca:64:e9:7c:ca:66:2b:4c:e8:22:20:0e:10:26:
                    f1:cf:ed:59:1f:5b:86:c8:3b:9d:4f:44:ac:d7:69:
                    53:86:41:e6:b6:15:97:0c:6c:60:66:50:a2:d0:f6:
                    d6:25:a2:e7:ed:37:b7:df:b4:98:5e:cd:6d:c2:d9:
                    d9:46:b3:88:6b:f1:a5:c9:e5:b9:83:9e:18:f1:f4:
                    b0:39:05:87:42:97:1a:ef:50:ee:03:20:ae:27:1d:
                    8a:8e:c7:bd:21:e7:54:cd:45:c9:c8:63:75:34:62:
                    6b:b8:66:3f:5c:2c:c7:ce:53:23:51:ed:7c:59:1e:
                    2f:44:c0:b3:a3:38:9d:9a:ea:4a:68:42:ca:94:2c:
                    30:38:c2:50:19:78:77:2d:43:88:f7:c3:2f:45:3a:
                    e1:0c:ba:2b:e5:55:fa:a6:a5:6a:f4:33:ee:00:a2:
                    b9:75:68:1b:ee:31:3e:6f:43:40:d9:5f:3a:c1:b3:
                    41:70:74:b7:43:41:32:c3:5a:b5:80:4e:4c:7e:47:
                    33:92:c5:30:30:97:20:a5:65:0b:90:78:c4:f5:3b:
                    6a:e1:b3:76:6a:0b:36:ab:9e:b8:b8:6a:6a:3c:13:
                    74:29:17:9e:4b:22:d5:63:31:5e:6a:3b:2f:c0:27:
                    b2:ca:d5:cd:18:7d:cc:94:d2:91:2a:a0:be:d3:c5:
                    cf:07:99:14:81:00:06:72:11:cd:e6:35:79:18:f6:
                    c6:20:71:5a:f2:30:52:0b:7f:17:8d:c3:53:f5:e7:
                    7a:6f:2a:4b:60:44:c9:a9:02:2c:d9:27:eb:9e:cf:
                    5e:24:87:09:fc:d1:a2:32:a0:4d:97:85:12:40:c1:
                    4f:41:56:94:87:60:4e:03:cd:c3:fb:39:ce:4f:f0:
                    1a:87:0f
                Exponent: 65537 (0x10001)
        X509v3 extensions:
            X509v3 Key Usage: critical
                Certificate Sign, CRL Sign
            X509v3 Basic Constraints: critical
                CA:TRUE
            X509v3 Subject Key Identifier: 
                5C:16:CB:E9:EC:68:EF:E1:33:A0:6F:A0:F9:33:3C:EF:21:05:B6:5A
            X509v3 Authority Key Identifier: 
                5C:16:CB:E9:EC:68:EF:E1:33:A0:6F:A0:F9:33:3C:EF:21:05:B6:5A
    Signature Algorithm: sha256WithRSAEncryption
    Signature Value:
        3c:66:c1:70:91:e2:d2:74:c0:cb:29:a0:1d:fc:c2:02:e8:8b:
        3c:5a:93:68:07:ce:dd:88:98:8f:86:c1:b6:c1:32:8b:d2:20:
        69:ad:15:8d:1e:01:b1:63:ca:20:c6:ab:c6:4c:cb:87:17:67:
        ae:f3:38:79:6e:3a:f8:6b:db:f5:39:c9:b5:5f:3e:b3:f7:7a:
        f7:bf:fd:a2:44:e1:30:ed:f1:41:f2:88:35:99:b7:78:8d:78:
        90:69:bc:8f:c1:59:e7:cc:ff:09:3d:c2:c0:81:92:c4:97:85:
        8f:2e:95:54:08:13:1b:45:c8:f3:72:d6:e6:25:6c:bd:28:aa:
        b7:5a:c5:18:a5:09:32:54:b3:57:93:6a:bd:c9:64:c3:cd:ef:
        fb:fc:61:0c:72:32:ba:76:86:6e:bc:dc:cb:36:2d:70:df:1b:
        ee:f8:27:94:d7:45:47:37:db:b5:ef:a0:12:25:01:b6:e7:ac:
        0e:30:fd:74:ce:af:07:bd:53:db:99:37:24:aa:04:60:59:c3:
        59:7e:56:68:97:c7:36:14:df:38:ee:4d:ef:58:00:2e:24:55:
        c0:3e:c2:52:5e:fb:af:23:2d:e7:d3:b8:76:3e:3c:2e:f9:72:
        50:7b:16:73:68:5f:40:17:b5:20:20:5a:49:71:ce:df:9e:0e:
        73:b1:73:0a:56:05:69:9e:27:3e:57:cb:c1:14:31:3d:8f:e1:
        b4:c8:1e:52:15:79:2f:55:3c:4a:94:ab:8a:ab:dd:05:9f:ee:
        9b:5d:5a:9b:db:7d:bb:1a:97:15:35:05:a5:00:bf:a6:27:01:
        c2:c6:b8:d8:90:4a:c3:80:e5:da:f9:2a:a3:e7:2a:6d:8c:e9:
        8c:63:c5:f1:0b:4d:3f:12:0c:49:d7:25:84:e2:54:c0:2c:0f:
        4d:34:2b:82:58:a1:fb:b2:00:25:94:20:03:97:64:a1:2b:f1:
        8a:cb:1d:b4:c1:ce:4d:5c:a9:bf:ba:a9:3a:4d:d4:d6:d6:86:
        4d:50:ed:61:51:40:e4:db:c8:1d:eb:4e:6c:2b:8d:0b:7a:8f:
        d6:7c:6f:39:27:7b:5c:a2:a5:2d:3c:2b:c5:52:cb:04:a7:d3:
        db:f3:ee:33:c8:1d:9a:9f:c6:43:c1:b0:c0:80:b6:69:e1:2c:
        13:71:7e:67:da:b5:88:8f:01:df:89:7a:4a:d5:51:f3:69:f0:
        70:1c:8b:1c:87:25:15:b3:51:f4:76:f1:41:e1:61:e4:de:e0:
        f0:c2:f6:d9:53:9a:75:36:cf:9b:c0:3e:e3:1b:e8:56:9b:26:
        e3:1e:ad:16:e2:4c:20:b5:b7:2e:c2:3e:e4:35:99:ce:36:40:
        d7:f2:01:64:bf:b2:28:55
-----BEGIN CERTIFICATE-----
MIIFYDCCA0igAwIBAgIBAzANBgkqhkiG9w0BAQsFADBBMQswCQYDVQQGEwJVUzEO
MAwGA1UECgwFU0NBREExEDAOBgNVBAsMB1Jvb3QgQ0ExEDAOBgNVBAMMB1Jvb3Qg
Q0EwHhcNMjIxMTI3MTIxMTQyWhcNMzIxMTI2MTIxMTQyWjBBMQswCQYDVQQGEwJV
UzEOMAwGA1UECgwFU0NBREExEDAOBgNVBAsMB1Jvb3QgQ0ExEDAOBgNVBAMMB1Jv
b3QgQ0EwggIiMA0GCSqGSIb3DQEBAQUAA4ICDwAwggIKAoICAQDOUOzMlKzx+4fG
IFIsZc9wwxS1jFARk4nguM+x59RKp04RZ5scb0eHp7l64lTAA77rXXKxuoNFnXbJ
cS6638UFoW3UyxIZdtplVKQ8QV1tWg7k9ZsTpjp/UiiAf9CRnvmZPT0ERKw2B8Lv
zbYwJ2W6oQK061BB6dneiiLZB0+B4PMnZ1/HCqfAAgMJoujv+nKgGKpsSRWNU2m3
T8hQ86OWb0MrGnsJgo/WGQ1LXURJr+6+oXHKZOl8ymYrTOgiIA4QJvHP7VkfW4bI
O51PRKzXaVOGQea2FZcMbGBmUKLQ9tYlouftN7fftJhezW3C2dlGs4hr8aXJ5bmD
nhjx9LA5BYdClxrvUO4DIK4nHYqOx70h51TNRcnIY3U0Ymu4Zj9cLMfOUyNR7XxZ
Hi9EwLOjOJ2a6kpoQsqULDA4wlAZeHctQ4j3wy9FOuEMuivlVfqmpWr0M+4Aorl1
aBvuMT5vQ0DZXzrBs0FwdLdDQTLDWrWATkx+RzOSxTAwlyClZQuQeMT1O2rhs3Zq
Czarnri4amo8E3QpF55LItVjMV5qOy/AJ7LK1c0YfcyU0pEqoL7Txc8HmRSBAAZy
Ec3mNXkY9sYgcVryMFILfxeNw1P153pvKktgRMmpAizZJ+uez14khwn80aIyoE2X
hRJAwU9BVpSHYE4DzcP7Oc5P8BqHDwIDAQABo2MwYTAOBgNVHQ8BAf8EBAMCAQYw
DwYDVR0TAQH/BAUwAwEB/zAdBgNVHQ4EFgQUXBbL6exo7+EzoG+g+TM87yEFtlow
HwYDVR0jBBgwFoAUXBbL6exo7+EzoG+g+TM87yEFtlowDQYJKoZIhvcNAQELBQAD
ggIBADxmwXCR4tJ0wMspoB38wgLoizxak2gHzt2ImI+GwbbBMovSIGmtFY0eAbFj
yiDGq8ZMy4cXZ67zOHluOvhr2/U5ybVfPrP3eve//aJE4TDt8UHyiDWZt3iNeJBp
vI/BWefM/wk9wsCBksSXhY8ulVQIExtFyPNy1uYlbL0oqrdaxRilCTJUs1eTar3J
ZMPN7/v8YQxyMrp2hm683Ms2LXDfG+74J5TXRUc327XvoBIlAbbnrA4w/XTOrwe9
U9uZNySqBGBZw1l+VmiXxzYU3zjuTe9YAC4kVcA+wlJe+68jLefTuHY+PC75clB7
FnNoX0AXtSAgWklxzt+eDnOxcwpWBWmeJz5Xy8EUMT2P4bTIHlIVeS9VPEqUq4qr
3QWf7ptdWpvbfbsalxU1BaUAv6YnAcLGuNiQSsOA5dr5KqPnKm2M6YxjxfELTT8S
DEnXJYTiVMAsD000K4JYofuyACWUIAOXZKEr8YrLHbTBzk1cqb+6qTpN1NbWhk1Q
7WFRQOTbyB3rTmwrjQt6j9Z8bzkne1yipS08K8VSywSn09vz7jPIHZqfxkPBsMCA
tmnhLBNxfmfatYiPAd+JekrVUfNp8HAcixyHJRWzUfR28UHhYeTe4PDC9tlTmnU2
z5vAPuMb6FabJuMerRbiTCC1ty7CPuQ1mc42QNfyAWS/sihV
-----END CERTIFICATE-----
