Certificate:
    Data:
        Version: 3 (0x2)
        Serial Number: 4 (0x4)
        Signature Algorithm: sha256WithRSAEncryption
        Issuer: C=US, O=SCADA, OU=Component CA, CN=Component CA
        Validity
            Not Before: Dec  2 22:44:47 2022 GMT
            Not After : Dec  1 22:44:47 2024 GMT
        Subject: C=US, ST=NC, L=Raleigh, O=SCADA, OU=SCADA_ldap, CN=authenticator.scada.local
        Subject Public Key Info:
            Public Key Algorithm: rsaEncryption
                Public-Key: (2048 bit)
                Modulus:
                    00:c3:ef:53:f5:fc:d2:17:f2:bf:ef:62:91:18:c8:
                    c3:45:ce:01:41:f7:fa:69:2f:9d:18:19:85:2b:8f:
                    c2:af:4c:a5:e8:19:62:a9:54:0e:ee:6d:54:9d:94:
                    67:65:0f:dd:1e:2f:e0:e6:bc:d6:e0:aa:4b:f3:35:
                    f3:ea:d3:a2:36:34:4c:32:ad:cf:fb:bb:83:72:ff:
                    bf:c9:b6:0c:1b:30:ad:56:80:22:2d:44:fd:86:f3:
                    ef:c5:68:c1:fb:d1:06:c1:58:69:52:30:51:d6:d2:
                    d5:6c:3a:f0:70:98:62:dd:c9:8a:4b:36:0a:54:4e:
                    d6:88:08:17:3b:f6:1f:59:6a:c6:31:5a:10:24:b2:
                    11:2e:20:20:4a:b6:ae:8b:a5:c3:3f:93:97:4d:4f:
                    bd:36:c5:13:15:08:4b:1a:d9:a1:04:8c:39:6a:50:
                    39:3a:5c:23:56:89:f8:2f:35:a0:fe:31:d8:c4:13:
                    4c:3d:c8:90:cc:03:17:ba:bb:b8:b6:7f:9e:f3:ed:
                    62:5a:62:6f:6b:9e:e0:e7:9d:fc:54:61:43:3d:d3:
                    66:81:db:c1:7b:1a:33:71:39:c8:1d:66:9f:b0:4f:
                    1b:61:45:ea:56:81:81:bb:78:31:c8:53:0d:92:31:
                    bc:ce:4d:10:b5:4e:20:17:4b:22:5e:d1:3e:58:7b:
                    20:bf
                Exponent: 65537 (0x10001)
        X509v3 extensions:
            X509v3 Key Usage: critical
                Digital Signature, Key Encipherment
            X509v3 Basic Constraints: 
                CA:FALSE
            X509v3 Extended Key Usage: 
                TLS Web Server Authentication, TLS Web Client Authentication
            X509v3 Subject Key Identifier: 
                FE:02:32:50:8F:A1:CD:D4:62:7C:F5:5C:D7:57:EC:D9:85:4E:5F:F0
            X509v3 Authority Key Identifier: 
                F2:67:77:39:DB:CA:91:B3:B7:89:A5:83:C9:35:29:47:17:DA:7B:D0
            Authority Information Access: 
                CA Issuers - URI:http://pki.scada.local/component-ca.cer
            X509v3 CRL Distribution Points: 
                Full Name:
                  URI:http://pki.scada.local/component-ca.crl
            X509v3 Certificate Policies: 
                Policy: Blue Medium Device Assurance
            X509v3 Subject Alternative Name: 
                DNS:webapp.scada.local
    Signature Algorithm: sha256WithRSAEncryption
    Signature Value:
        20:ff:8d:4f:c3:3e:fc:d9:2f:6b:b9:f9:c9:ee:ce:22:b1:d8:
        d3:64:5c:34:6d:b0:81:f2:a7:88:0a:95:7f:0a:11:fd:99:36:
        c1:13:86:4d:7e:96:79:64:de:1c:08:9d:21:b4:4b:9c:6b:d6:
        dc:a1:71:86:77:bf:f2:76:da:80:68:95:82:48:2a:53:0f:b1:
        86:d3:d5:c4:7f:3d:35:3b:86:b5:02:2a:49:c8:9c:05:9f:74:
        f3:cc:18:db:a8:bb:35:d1:e4:6f:39:51:f5:80:72:77:71:94:
        9d:77:ce:09:bc:37:db:39:cc:af:99:05:67:47:41:fb:3a:c0:
        30:a9:7a:42:47:ed:05:76:cb:2c:a1:dc:8c:bb:7a:fa:0d:e4:
        21:35:dc:80:0a:5d:97:c8:5d:1d:e9:46:26:d5:26:9a:8f:0b:
        e0:bb:ba:05:77:af:bc:5d:a8:08:80:71:e1:38:e2:28:4c:fa:
        9a:de:0a:b8:07:a7:01:6d:df:a5:20:6a:42:9b:70:5f:00:c1:
        ee:2e:4c:8c:06:84:a5:83:d0:ef:c9:54:5c:00:5b:e3:80:b7:
        99:21:57:29:8e:0f:a6:f0:53:cc:37:26:c5:59:52:0c:f1:8b:
        2b:0d:4b:ee:9d:6e:c1:9e:8a:27:3b:d5:22:56:80:65:b8:35:
        f7:d7:bc:10:66:b8:66:7b:6e:9b:6a:88:b4:2b:0a:b2:b6:77:
        a8:bc:30:f2:d9:4b:06:53:ce:15:44:ec:8d:b7:d9:45:a6:c9:
        e2:be:1c:75:65:64:99:79:f4:d9:e9:e1:5e:77:0e:ff:51:c0:
        db:84:c0:91:ae:a1:ba:ed:e0:8d:fa:63:74:9d:56:7e:80:aa:
        cb:55:3a:6d:75:f6:9a:47:70:fc:d4:5d:90:be:bd:36:04:3f:
        67:b1:54:46:f0:e4:58:cd:c7:69:db:b7:af:06:d9:40:ef:46:
        27:a7:6e:af:ea:fc:8f:8d:ec:97:83:e0:99:4a:8c:63:d0:07:
        05:50:96:0f:7d:6b:74:42:0c:b2:63:74:72:c5:a4:0a:39:11:
        be:11:e2:68:b3:d2:d9:62:68:3b:8f:0b:44:3b:15:07:cc:14:
        48:74:6e:84:39:1f:8f:32:ff:e4:b1:c7:92:ab:ca:f8:b4:d3:
        e9:f8:12:2d:30:82:33:db:f5:7f:2e:ef:b7:d7:eb:64:55:0f:
        a6:59:e6:ae:2e:6e:11:91:8e:fc:9a:56:7d:7b:1e:ff:1d:5e:
        05:61:49:b3:03:7c:2c:44:4f:fe:15:65:f1:9e:ff:4b:54:44:
        dd:bb:35:18:01:76:96:c4:9e:10:9b:0b:8e:85:72:75:bb:ec:
        8e:e4:92:d8:94:89:f4:b3
-----BEGIN CERTIFICATE-----
MIIFcTCCA1mgAwIBAgIBBDANBgkqhkiG9w0BAQsFADBLMQswCQYDVQQGEwJVUzEO
MAwGA1UECgwFU0NBREExFTATBgNVBAsMDENvbXBvbmVudCBDQTEVMBMGA1UEAwwM
Q29tcG9uZW50IENBMB4XDTIyMTIwMjIyNDQ0N1oXDTI0MTIwMTIyNDQ0N1owdTEL
MAkGA1UEBhMCVVMxCzAJBgNVBAgMAk5DMRAwDgYDVQQHDAdSYWxlaWdoMQ4wDAYD
VQQKDAVTQ0FEQTETMBEGA1UECwwKU0NBREFfbGRhcDEiMCAGA1UEAwwZYXV0aGVu
dGljYXRvci5zY2FkYS5sb2NhbDCCASIwDQYJKoZIhvcNAQEBBQADggEPADCCAQoC
ggEBAMPvU/X80hfyv+9ikRjIw0XOAUH3+mkvnRgZhSuPwq9MpegZYqlUDu5tVJ2U
Z2UP3R4v4Oa81uCqS/M18+rTojY0TDKtz/u7g3L/v8m2DBswrVaAIi1E/Ybz78Vo
wfvRBsFYaVIwUdbS1Ww68HCYYt3Jiks2ClRO1ogIFzv2H1lqxjFaECSyES4gIEq2
roulwz+Tl01PvTbFExUISxrZoQSMOWpQOTpcI1aJ+C81oP4x2MQTTD3IkMwDF7q7
uLZ/nvPtYlpib2ue4Oed/FRhQz3TZoHbwXsaM3E5yB1mn7BPG2FF6laBgbt4MchT
DZIxvM5NELVOIBdLIl7RPlh7IL8CAwEAAaOCATQwggEwMA4GA1UdDwEB/wQEAwIF
oDAJBgNVHRMEAjAAMB0GA1UdJQQWMBQGCCsGAQUFBwMBBggrBgEFBQcDAjAdBgNV
HQ4EFgQU/gIyUI+hzdRifPVc11fs2YVOX/AwHwYDVR0jBBgwFoAU8md3OdvKkbO3
iaWDyTUpRxfae9AwQwYIKwYBBQUHAQEENzA1MDMGCCsGAQUFBzAChidodHRwOi8v
cGtpLnNjYWRhLmxvY2FsL2NvbXBvbmVudC1jYS5jZXIwOAYDVR0fBDEwLzAtoCug
KYYnaHR0cDovL3BraS5zY2FkYS5sb2NhbC9jb21wb25lbnQtY2EuY3JsMBYGA1Ud
IAQPMA0wCwYJKwYBBAEAAQcJMB0GA1UdEQQWMBSCEndlYmFwcC5zY2FkYS5sb2Nh
bDANBgkqhkiG9w0BAQsFAAOCAgEAIP+NT8M+/Nkva7n5ye7OIrHY02RcNG2wgfKn
iAqVfwoR/Zk2wROGTX6WeWTeHAidIbRLnGvW3KFxhne/8nbagGiVgkgqUw+xhtPV
xH89NTuGtQIqScicBZ9088wY26i7NdHkbzlR9YByd3GUnXfOCbw32znMr5kFZ0dB
+zrAMKl6QkftBXbLLKHcjLt6+g3kITXcgApdl8hdHelGJtUmmo8L4Lu6BXevvF2o
CIBx4TjiKEz6mt4KuAenAW3fpSBqQptwXwDB7i5MjAaEpYPQ78lUXABb44C3mSFX
KY4PpvBTzDcmxVlSDPGLKw1L7p1uwZ6KJzvVIlaAZbg199e8EGa4Zntum2qItCsK
srZ3qLww8tlLBlPOFUTsjbfZRabJ4r4cdWVkmXn02enhXncO/1HA24TAka6huu3g
jfpjdJ1WfoCqy1U6bXX2mkdw/NRdkL69NgQ/Z7FURvDkWM3Hadu3rwbZQO9GJ6du
r+r8j43sl4PgmUqMY9AHBVCWD31rdEIMsmN0csWkCjkRvhHiaLPS2WJoO48LRDsV
B8wUSHRuhDkfjzL/5LHHkqvK+LTT6fgSLTCCM9v1fy7vt9frZFUPplnmri5uEZGO
/JpWfXse/x1eBWFJswN8LERP/hVl8Z7/S1RE3bs1GAF2lsSeEJsLjoVydbvsjuSS
2JSJ9LM=
-----END CERTIFICATE-----
