Certificate:
    Data:
        Version: 3 (0x2)
        Serial Number: 2 (0x2)
        Signature Algorithm: sha256WithRSAEncryption
        Issuer: C=US, O=SCADA, OU=Identity CA, CN=Identity CA
        Validity
            Not Before: Dec  3 19:21:05 2022 GMT
            Not After : Dec  2 19:21:05 2025 GMT
        Subject: C=US, ST=NC, L=Raleigh, O=SCADA, OU=Admins, CN=fred.flintstone.adm
        Subject Public Key Info:
            Public Key Algorithm: rsaEncryption
                Public-Key: (4096 bit)
                Modulus:
                    00:c0:62:23:c4:ed:b8:10:6a:6e:a1:5f:80:75:bd:
                    63:e2:bf:ec:13:75:2d:e4:f4:69:75:fb:9c:1a:c7:
                    47:c7:7c:53:63:26:c9:b1:23:36:39:e8:e3:6e:aa:
                    05:18:03:ac:bc:9d:82:8e:62:82:59:0d:72:0e:03:
                    e1:f3:ec:e2:80:96:4e:9d:78:a4:93:80:3d:6a:38:
                    75:26:40:f8:b1:e3:c6:45:d9:a7:dd:3e:fd:d2:82:
                    1c:69:6c:c6:3a:57:36:cc:37:4a:ea:0b:ae:d5:21:
                    a7:7b:97:98:d0:a7:79:af:5a:1f:3f:1a:ba:2b:3e:
                    97:cf:8c:96:e9:ae:1d:79:2a:fc:08:3a:65:a7:96:
                    1e:07:b9:b1:bb:b2:38:75:e6:e5:68:b5:58:53:b8:
                    f5:3a:1f:87:e4:0e:28:15:be:45:2a:8c:12:11:c8:
                    76:a5:1e:59:2c:d5:bc:af:2c:8e:bf:cb:41:a5:7e:
                    29:07:46:e6:b6:db:ec:4b:65:2f:a5:55:31:94:d3:
                    b7:4f:a1:f3:ac:7b:de:1d:6b:79:f4:b6:a5:0d:58:
                    8a:b9:82:ab:6b:fc:65:99:29:7a:13:e6:34:c4:47:
                    0d:8c:cf:fa:a2:1f:0f:18:2b:cf:26:b1:a0:c3:ec:
                    70:76:54:75:93:f3:26:a3:a2:db:22:4c:b5:67:78:
                    66:75:00:4f:42:9b:60:d7:8b:10:0b:d0:3a:bf:e5:
                    22:c2:74:f2:1c:13:30:54:27:4d:d2:ea:40:95:74:
                    c4:86:16:7f:ac:b5:15:ed:30:88:1b:a9:cf:2c:27:
                    c1:f1:1a:dc:f0:09:3e:89:58:f3:1c:11:99:13:b7:
                    1d:a2:d0:46:da:da:c0:34:e5:fd:7e:bb:7e:83:ff:
                    3b:10:ce:a2:02:43:84:5d:5a:b4:4e:9b:d0:56:b2:
                    55:3c:95:cc:77:f1:9f:6c:72:29:24:f2:d0:4a:49:
                    24:da:f8:29:5f:c6:69:ce:08:0f:0c:39:64:da:54:
                    76:c2:d5:5a:cd:88:6f:f5:64:bb:a3:5e:78:6d:4f:
                    a7:b0:58:5f:40:86:2c:43:fe:56:04:9b:46:60:98:
                    6e:2c:c7:81:98:4d:0f:99:b7:50:5a:6a:bf:74:e4:
                    d0:a2:14:14:aa:a9:af:f1:07:ac:d2:cc:3d:ee:51:
                    f5:98:7f:0d:a7:94:bd:9d:32:4e:2a:ae:c0:2f:fd:
                    a6:43:ab:81:f5:3e:9e:56:0f:cc:02:82:29:06:17:
                    d7:65:b4:a1:d4:05:b7:b8:45:fa:a7:4b:74:22:14:
                    19:83:19:ec:16:31:ac:7d:ad:de:84:12:9e:7a:8b:
                    da:e4:55:36:05:09:d0:03:28:c7:a0:f8:09:e7:45:
                    22:55:d3
                Exponent: 65537 (0x10001)
        X509v3 extensions:
            X509v3 Key Usage: critical
                Digital Signature
            X509v3 Basic Constraints: 
                CA:FALSE
            X509v3 Extended Key Usage: 
                E-mail Protection, TLS Web Client Authentication, Microsoft Smartcard Login
            X509v3 Subject Key Identifier: 
                60:DA:43:01:DA:F3:93:F7:AD:19:4E:9C:0D:F6:74:D9:FD:7E:C8:91
            X509v3 Authority Key Identifier: 
                01:59:CF:CE:7C:C6:2D:E1:1A:72:98:90:C2:BA:F9:E2:6A:F0:A9:A4
            Authority Information Access: 
                CA Issuers - URI:http://pki.scada.local/identity-ca.cer
            X509v3 CRL Distribution Points: 
                Full Name:
                  URI:http://pki.scada.local/identity-ca.crl
            X509v3 Certificate Policies: 
                Policy: Blue Medium Assurance
            X509v3 Subject Alternative Name: 
                <EMPTY>

    Signature Algorithm: sha256WithRSAEncryption
    Signature Value:
        22:fe:fa:a9:db:6d:dd:82:af:8c:b1:7f:5d:f6:25:a0:84:fa:
        87:0b:cc:28:2d:ef:2c:cb:ef:e1:20:4b:ed:55:09:dc:6c:c2:
        a9:4c:13:d2:f9:14:fe:dd:c9:f3:61:c3:46:c2:17:3c:b1:44:
        68:a1:cd:3b:da:42:c3:64:d3:b3:1f:d0:71:35:4e:f3:58:d3:
        bd:5d:e8:be:6a:2b:ca:4a:7a:fd:a1:c8:22:1b:ac:4f:55:c4:
        6b:60:2c:06:c9:a7:55:22:9c:d4:bc:fb:ea:16:10:36:47:a8:
        84:c9:d4:31:80:46:a9:bc:1f:21:a2:53:dd:41:b2:e9:85:4f:
        67:3a:99:96:62:d8:eb:01:59:7d:f1:5a:20:1b:46:46:cf:bc:
        66:41:9a:e2:6f:34:35:54:44:c9:b2:dd:6f:25:f9:9a:22:34:
        ee:d4:a2:21:8e:29:fe:c1:e7:51:9a:f7:b2:5a:12:39:14:dc:
        de:53:76:ab:11:1a:f0:d8:78:e0:f5:2c:b3:ce:2f:da:30:9f:
        0e:a4:8b:81:cc:dd:db:02:96:be:cb:a0:77:a2:fa:29:f6:3a:
        6f:34:46:c5:07:b8:3e:38:15:fc:cf:cc:1d:2f:cf:42:65:73:
        ec:8e:79:aa:05:27:8d:30:bb:b0:db:89:51:94:b2:80:67:97:
        ab:6d:b9:c7:90:46:71:42:45:18:d5:b6:c1:0e:10:64:59:14:
        43:46:61:6f:07:b3:c1:92:6d:b0:45:21:78:46:57:fa:81:f6:
        25:a5:55:c1:ed:3e:80:95:c0:20:01:39:99:01:20:65:3c:a8:
        7c:d8:24:9b:2a:d2:c5:a3:7b:6e:75:77:00:71:4e:94:a5:9b:
        8b:3d:f6:df:8f:c9:9c:5a:16:5b:ca:09:4f:03:90:da:38:1d:
        06:2f:df:51:40:1a:bc:c5:27:1e:f1:12:f9:39:b1:3f:51:7b:
        69:c4:ef:c6:40:23:9b:ce:2f:9d:bf:90:18:26:42:79:55:e8:
        88:08:fc:44:ea:d8:71:72:94:ee:73:54:90:76:97:ab:91:07:
        37:b9:0d:2b:3b:eb:1a:cf:bd:15:28:52:d4:f6:d5:40:b1:28:
        a8:ee:c2:68:89:69:7a:c2:de:d8:cb:52:ce:1e:1a:c7:c2:e4:
        82:a1:b5:a2:7e:e6:f2:44:83:f0:b3:ec:47:4a:ae:d1:d0:fd:
        91:6c:32:88:52:52:6e:9d:28:c4:72:d6:d5:39:3a:a1:a3:7b:
        5d:5b:71:54:9a:67:0d:3d:41:3e:c3:3d:99:d1:db:17:e3:25:
        f4:6f:4c:47:7e:12:4f:05:54:6b:60:42:0e:45:f1:0d:67:80:
        d8:ef:95:bb:9f:d1:74:7a
-----BEGIN CERTIFICATE-----
MIIGWzCCBEOgAwIBAgIBAjANBgkqhkiG9w0BAQsFADBJMQswCQYDVQQGEwJVUzEO
MAwGA1UECgwFU0NBREExFDASBgNVBAsMC0lkZW50aXR5IENBMRQwEgYDVQQDDAtJ
ZGVudGl0eSBDQTAeFw0yMjEyMDMxOTIxMDVaFw0yNTEyMDIxOTIxMDVaMGsxCzAJ
BgNVBAYTAlVTMQswCQYDVQQIDAJOQzEQMA4GA1UEBwwHUmFsZWlnaDEOMAwGA1UE
CgwFU0NBREExDzANBgNVBAsMBkFkbWluczEcMBoGA1UEAwwTZnJlZC5mbGludHN0
b25lLmFkbTCCAiIwDQYJKoZIhvcNAQEBBQADggIPADCCAgoCggIBAMBiI8TtuBBq
bqFfgHW9Y+K/7BN1LeT0aXX7nBrHR8d8U2MmybEjNjno426qBRgDrLydgo5iglkN
cg4D4fPs4oCWTp14pJOAPWo4dSZA+LHjxkXZp90+/dKCHGlsxjpXNsw3SuoLrtUh
p3uXmNCnea9aHz8auis+l8+MlumuHXkq/Ag6ZaeWHge5sbuyOHXm5Wi1WFO49Tof
h+QOKBW+RSqMEhHIdqUeWSzVvK8sjr/LQaV+KQdG5rbb7EtlL6VVMZTTt0+h86x7
3h1refS2pQ1YirmCq2v8ZZkpehPmNMRHDYzP+qIfDxgrzyaxoMPscHZUdZPzJqOi
2yJMtWd4ZnUAT0KbYNeLEAvQOr/lIsJ08hwTMFQnTdLqQJV0xIYWf6y1Fe0wiBup
zywnwfEa3PAJPolY8xwRmRO3HaLQRtrawDTl/X67foP/OxDOogJDhF1atE6b0Fay
VTyVzHfxn2xyKSTy0EpJJNr4KV/Gac4IDww5ZNpUdsLVWs2Ib/Vku6NeeG1Pp7BY
X0CGLEP+VgSbRmCYbizHgZhND5m3UFpqv3Tk0KIUFKqpr/EHrNLMPe5R9Zh/DaeU
vZ0yTiquwC/9pkOrgfU+nlYPzAKCKQYX12W0odQFt7hF+qdLdCIUGYMZ7BYxrH2t
3oQSnnqL2uRVNgUJ0AMox6D4CedFIlXTAgMBAAGjggEqMIIBJjAOBgNVHQ8BAf8E
BAMCB4AwCQYDVR0TBAIwADApBgNVHSUEIjAgBggrBgEFBQcDBAYIKwYBBQUHAwIG
CisGAQQBgjcUAgIwHQYDVR0OBBYEFGDaQwHa85P3rRlOnA32dNn9fsiRMB8GA1Ud
IwQYMBaAFAFZz858xi3hGnKYkMK6+eJq8KmkMEIGCCsGAQUFBwEBBDYwNDAyBggr
BgEFBQcwAoYmaHR0cDovL3BraS5zY2FkYS5sb2NhbC9pZGVudGl0eS1jYS5jZXIw
NwYDVR0fBDAwLjAsoCqgKIYmaHR0cDovL3BraS5zY2FkYS5sb2NhbC9pZGVudGl0
eS1jYS5jcmwwFgYDVR0gBA8wDTALBgkrBgEEAQABBwgwCQYDVR0RBAIwADANBgkq
hkiG9w0BAQsFAAOCAgEAIv76qdtt3YKvjLF/XfYloIT6hwvMKC3vLMvv4SBL7VUJ
3GzCqUwT0vkU/t3J82HDRsIXPLFEaKHNO9pCw2TTsx/QcTVO81jTvV3ovmorykp6
/aHIIhusT1XEa2AsBsmnVSKc1Lz76hYQNkeohMnUMYBGqbwfIaJT3UGy6YVPZzqZ
lmLY6wFZffFaIBtGRs+8ZkGa4m80NVREybLdbyX5miI07tSiIY4p/sHnUZr3sloS
ORTc3lN2qxEa8Nh44PUss84v2jCfDqSLgczd2wKWvsugd6L6KfY6bzRGxQe4PjgV
/M/MHS/PQmVz7I55qgUnjTC7sNuJUZSygGeXq225x5BGcUJFGNW2wQ4QZFkUQ0Zh
bwezwZJtsEUheEZX+oH2JaVVwe0+gJXAIAE5mQEgZTyofNgkmyrSxaN7bnV3AHFO
lKWbiz3234/JnFoWW8oJTwOQ2jgdBi/fUUAavMUnHvES+TmxP1F7acTvxkAjm84v
nb+QGCZCeVXoiAj8ROrYcXKU7nNUkHaXq5EHN7kNKzvrGs+9FShS1PbVQLEoqO7C
aIlpesLe2MtSzh4ax8LkgqG1on7m8kSD8LPsR0qu0dD9kWwyiFJSbp0oxHLW1Tk6
oaN7XVtxVJpnDT1BPsM9mdHbF+Ml9G9MR34STwVUa2BCDkXxDWeA2O+Vu5/RdHo=
-----END CERTIFICATE-----
