Certificate:
    Data:
        Version: 3 (0x2)
        Serial Number: 1 (0x1)
        Signature Algorithm: sha256WithRSAEncryption
        Issuer: C=US, O=SCADA, OU=Identity CA, CN=Identity CA
        Validity
            Not Before: Dec  3 19:21:03 2022 GMT
            Not After : Dec  2 19:21:03 2025 GMT
        Subject: C=US, ST=NC, L=Raleigh, O=SCADA, OU=Users, CN=fred.flintstone
        Subject Public Key Info:
            Public Key Algorithm: rsaEncryption
                Public-Key: (4096 bit)
                Modulus:
                    00:c0:87:bd:69:53:71:af:ad:3b:31:75:84:e0:35:
                    37:2d:3d:e2:1a:e7:ad:76:23:c9:8a:b2:35:9c:e9:
                    97:0f:e3:a0:f2:e4:91:e9:7b:00:3c:7a:d1:27:f0:
                    ee:e3:bb:2e:9b:25:3c:72:db:68:6f:07:3d:54:db:
                    74:52:7d:24:09:16:51:1f:e1:8b:b1:12:20:4f:77:
                    09:54:67:4b:f5:dc:71:c3:a5:a6:2e:d7:f8:88:83:
                    98:c3:ad:dc:1e:31:b5:64:7c:fc:26:af:4d:1e:f2:
                    f7:e7:bf:15:72:34:0e:d1:33:b8:76:96:96:cc:37:
                    17:6d:0e:6b:31:0d:64:e6:e8:d3:4d:62:00:aa:42:
                    8a:84:87:24:1c:3a:4e:fb:a5:20:d5:24:03:e0:38:
                    a4:a3:82:10:80:46:98:66:4b:a6:32:43:2c:c0:42:
                    4c:20:16:4b:46:3f:93:e4:43:5a:88:96:40:60:a4:
                    cc:d6:66:aa:ce:19:46:e4:cc:cf:ec:6c:b2:98:37:
                    4d:3e:56:45:6d:3e:45:86:16:f1:8b:5e:75:06:ac:
                    3c:dd:f9:8f:3f:b7:61:6c:9e:12:11:29:de:4d:10:
                    3a:b3:19:86:16:14:95:97:12:91:05:44:9d:dd:81:
                    11:0a:06:18:0f:e3:6a:da:9c:22:ae:59:7e:8a:37:
                    40:76:4b:c0:7b:5f:cb:85:c6:c2:04:26:f1:47:92:
                    b1:e6:af:a7:2f:b9:7d:48:04:1b:62:25:f8:75:af:
                    ef:ed:f5:98:24:b7:40:14:d0:8e:54:72:a7:ad:a2:
                    81:37:e2:a3:3b:c8:c7:87:b4:31:e7:32:a6:e6:db:
                    ff:dc:82:94:e1:ab:14:02:e5:47:8a:da:bd:76:22:
                    6a:78:53:e3:61:de:db:df:df:7f:2c:92:13:ce:5c:
                    b2:8d:83:00:94:25:19:7f:57:ff:5f:96:ba:40:43:
                    e3:a1:c0:7f:80:fb:33:39:93:6f:f8:78:2d:2e:c9:
                    73:78:34:a2:6e:2b:5b:23:97:16:fa:ac:3f:b5:d2:
                    4f:fd:a1:3b:56:96:8a:49:f7:98:23:58:cd:3d:67:
                    0a:d7:2f:b2:fe:5d:a0:02:56:51:30:bc:ad:47:9f:
                    77:5d:4f:60:0f:b5:47:60:51:3b:9f:be:9d:98:48:
                    5e:7b:59:75:84:c5:23:be:b2:9c:ed:19:a8:e1:66:
                    ad:e8:61:ca:88:fb:d9:1c:da:64:ea:9c:af:6f:f3:
                    96:f0:c7:27:05:3a:c4:d9:0f:6f:50:94:7a:a3:0f:
                    24:cb:ef:7f:0b:ab:c9:04:fb:19:fa:06:74:cf:88:
                    c2:f0:60:7a:bf:0d:a5:48:c6:bb:30:ca:0a:50:8d:
                    fd:67:65
                Exponent: 65537 (0x10001)
        X509v3 extensions:
            X509v3 Key Usage: critical
                Digital Signature
            X509v3 Basic Constraints: 
                CA:FALSE
            X509v3 Extended Key Usage: 
                E-mail Protection, TLS Web Client Authentication, Microsoft Smartcard Login
            X509v3 Subject Key Identifier: 
                43:7C:CE:F0:C6:20:91:E1:F4:12:BE:DC:02:9E:C7:E8:B1:12:1F:50
            X509v3 Authority Key Identifier: 
                01:59:CF:CE:7C:C6:2D:E1:1A:72:98:90:C2:BA:F9:E2:6A:F0:A9:A4
            Authority Information Access: 
                CA Issuers - URI:http://pki.scada.local/identity-ca.cer
            X509v3 CRL Distribution Points: 
                Full Name:
                  URI:http://pki.scada.local/identity-ca.crl
            X509v3 Certificate Policies: 
                Policy: Blue Medium Assurance
            X509v3 Subject Alternative Name: 
                <EMPTY>

    Signature Algorithm: sha256WithRSAEncryption
    Signature Value:
        88:d5:7c:f4:55:a4:1b:bc:61:f8:f1:84:38:c7:c5:f6:1a:e9:
        23:29:7b:66:12:04:2b:95:e2:c5:bb:1d:00:a7:93:fa:2a:1b:
        6e:65:51:f8:cf:2c:ec:f8:4a:1e:6f:f5:26:e8:68:05:11:91:
        28:4d:ed:1e:72:c9:e8:a8:7e:18:88:e0:5c:fb:a4:90:2f:11:
        db:fb:05:e6:d9:d6:9c:7d:6a:f5:73:5d:1d:18:aa:7f:42:8f:
        c3:d9:10:84:08:8a:22:c9:2a:50:61:48:61:b5:df:05:69:fd:
        a4:84:6b:3f:6c:6a:38:98:94:95:f4:30:d4:a6:4e:b4:40:8b:
        86:14:c3:62:38:c6:59:b9:9f:d2:3d:1c:90:65:ef:05:d7:9f:
        f6:b8:06:96:db:e1:76:4a:30:19:f2:0b:af:63:c2:33:52:68:
        57:e0:6a:de:1e:83:af:29:7c:dd:60:88:bb:18:41:e8:cf:bb:
        4d:c0:04:fa:ee:f6:8e:4a:07:86:8b:a0:da:0f:e1:1c:43:cf:
        97:4a:c5:aa:91:25:d0:9c:8a:09:54:9e:b6:ba:e2:88:0f:20:
        20:6f:04:21:47:e1:14:ba:cf:8c:0e:1c:80:7e:9b:5b:37:28:
        3b:86:c3:28:f2:b2:66:35:77:bd:55:e4:cf:cd:e5:dd:bc:ea:
        56:ac:77:52:58:e4:11:3d:25:33:8d:51:f8:42:d4:dc:d7:e1:
        2f:64:e0:b1:e2:e3:fd:a5:58:4d:42:8b:02:71:b7:06:e4:04:
        f5:1a:9f:1c:dd:d4:69:fd:eb:fe:1e:5c:d0:15:d5:56:88:27:
        d8:c2:02:3f:7a:c9:1e:ea:75:2e:bd:b8:d7:6f:39:d2:72:a8:
        ed:18:9d:a1:69:8f:69:1e:ca:ec:2a:7a:56:11:34:11:a4:2f:
        6a:b9:f0:86:71:e1:3f:04:0d:a1:c1:7c:13:89:9f:16:67:82:
        d1:b2:a4:ed:57:41:06:74:a7:94:27:3d:fb:f1:57:d0:03:dc:
        4c:94:f5:7b:39:df:e3:49:00:3c:91:63:cc:09:7e:78:43:7c:
        1f:c3:ad:f9:84:1d:74:5e:43:78:61:da:88:cd:66:2d:3f:db:
        0f:75:a8:f5:9f:df:49:fb:80:74:91:33:67:64:ba:cf:17:ea:
        70:87:ca:ce:f2:23:d6:db:08:ae:1f:f9:0e:f0:2e:9d:84:4e:
        eb:67:e2:30:cf:ee:f5:fb:a5:35:02:d5:f4:f5:47:a4:fc:a8:
        85:7b:fc:41:1e:df:78:94:02:17:2d:77:e9:53:17:68:11:85:
        ff:76:c1:9b:bc:3a:7f:3e:bb:68:fa:6c:02:53:b5:20:07:a0:
        82:c7:07:a1:02:21:52:dd
-----BEGIN CERTIFICATE-----
MIIGVjCCBD6gAwIBAgIBATANBgkqhkiG9w0BAQsFADBJMQswCQYDVQQGEwJVUzEO
MAwGA1UECgwFU0NBREExFDASBgNVBAsMC0lkZW50aXR5IENBMRQwEgYDVQQDDAtJ
ZGVudGl0eSBDQTAeFw0yMjEyMDMxOTIxMDNaFw0yNTEyMDIxOTIxMDNaMGYxCzAJ
BgNVBAYTAlVTMQswCQYDVQQIDAJOQzEQMA4GA1UEBwwHUmFsZWlnaDEOMAwGA1UE
CgwFU0NBREExDjAMBgNVBAsMBVVzZXJzMRgwFgYDVQQDDA9mcmVkLmZsaW50c3Rv
bmUwggIiMA0GCSqGSIb3DQEBAQUAA4ICDwAwggIKAoICAQDAh71pU3GvrTsxdYTg
NTctPeIa5612I8mKsjWc6ZcP46Dy5JHpewA8etEn8O7juy6bJTxy22hvBz1U23RS
fSQJFlEf4YuxEiBPdwlUZ0v13HHDpaYu1/iIg5jDrdweMbVkfPwmr00e8vfnvxVy
NA7RM7h2lpbMNxdtDmsxDWTm6NNNYgCqQoqEhyQcOk77pSDVJAPgOKSjghCARphm
S6YyQyzAQkwgFktGP5PkQ1qIlkBgpMzWZqrOGUbkzM/sbLKYN00+VkVtPkWGFvGL
XnUGrDzd+Y8/t2FsnhIRKd5NEDqzGYYWFJWXEpEFRJ3dgREKBhgP42ranCKuWX6K
N0B2S8B7X8uFxsIEJvFHkrHmr6cvuX1IBBtiJfh1r+/t9Zgkt0AU0I5UcqetooE3
4qM7yMeHtDHnMqbm2//cgpThqxQC5UeK2r12Imp4U+Nh3tvf338skhPOXLKNgwCU
JRl/V/9flrpAQ+OhwH+A+zM5k2/4eC0uyXN4NKJuK1sjlxb6rD+10k/9oTtWlopJ
95gjWM09ZwrXL7L+XaACVlEwvK1Hn3ddT2APtUdgUTufvp2YSF57WXWExSO+spzt
GajhZq3oYcqI+9kc2mTqnK9v85bwxycFOsTZD29QlHqjDyTL738Lq8kE+xn6BnTP
iMLwYHq/DaVIxrswygpQjf1nZQIDAQABo4IBKjCCASYwDgYDVR0PAQH/BAQDAgeA
MAkGA1UdEwQCMAAwKQYDVR0lBCIwIAYIKwYBBQUHAwQGCCsGAQUFBwMCBgorBgEE
AYI3FAICMB0GA1UdDgQWBBRDfM7wxiCR4fQSvtwCnsfosRIfUDAfBgNVHSMEGDAW
gBQBWc/OfMYt4RpymJDCuvniavCppDBCBggrBgEFBQcBAQQ2MDQwMgYIKwYBBQUH
MAKGJmh0dHA6Ly9wa2kuc2NhZGEubG9jYWwvaWRlbnRpdHktY2EuY2VyMDcGA1Ud
HwQwMC4wLKAqoCiGJmh0dHA6Ly9wa2kuc2NhZGEubG9jYWwvaWRlbnRpdHktY2Eu
Y3JsMBYGA1UdIAQPMA0wCwYJKwYBBAEAAQcIMAkGA1UdEQQCMAAwDQYJKoZIhvcN
AQELBQADggIBAIjVfPRVpBu8YfjxhDjHxfYa6SMpe2YSBCuV4sW7HQCnk/oqG25l
UfjPLOz4Sh5v9SboaAURkShN7R5yyeiofhiI4Fz7pJAvEdv7BebZ1px9avVzXR0Y
qn9Cj8PZEIQIiiLJKlBhSGG13wVp/aSEaz9sajiYlJX0MNSmTrRAi4YUw2I4xlm5
n9I9HJBl7wXXn/a4Bpbb4XZKMBnyC69jwjNSaFfgat4eg68pfN1giLsYQejPu03A
BPru9o5KB4aLoNoP4RxDz5dKxaqRJdCciglUnra64ogPICBvBCFH4RS6z4wOHIB+
m1s3KDuGwyjysmY1d71V5M/N5d286lasd1JY5BE9JTONUfhC1NzX4S9k4LHi4/2l
WE1CiwJxtwbkBPUanxzd1Gn96/4eXNAV1VaIJ9jCAj96yR7qdS69uNdvOdJyqO0Y
naFpj2keyuwqelYRNBGkL2q58IZx4T8EDaHBfBOJnxZngtGypO1XQQZ0p5QnPfvx
V9AD3EyU9Xs53+NJADyRY8wJfnhDfB/DrfmEHXReQ3hh2ojNZi0/2w91qPWf30n7
gHSRM2dkus8X6nCHys7yI9bbCK4f+Q7wLp2ETutn4jDP7vX7pTUC1fT1R6T8qIV7
/EEe33iUAhctd+lTF2gRhf92wZu8On8+u2j6bAJTtSAHoILHB6ECIVLd
-----END CERTIFICATE-----
