Certificate:
    Data:
        Version: 3 (0x2)
        Serial Number: 1 (0x1)
        Signature Algorithm: sha256WithRSAEncryption
        Issuer: C=US, O=SCADA, OU=Identity CA, CN=Identity CA
        Validity
            Not Before: Dec  2 20:49:24 2022 GMT
            Not After : Dec  1 20:49:24 2025 GMT
        Subject: C=US, ST=NC, L=Raleigh, O=SCADA, OU=User, CN=fred.flintstone
        Subject Public Key Info:
            Public Key Algorithm: rsaEncryption
                Public-Key: (4096 bit)
                Modulus:
                    00:88:8c:2d:53:c1:ac:04:9c:2c:9e:34:c0:a7:4c:
                    5f:bd:75:00:e7:f6:e9:b3:c6:4e:36:c9:f0:53:2c:
                    f3:e0:b4:16:9f:68:9d:ec:f1:3d:ed:ff:88:61:ca:
                    7c:ea:09:cf:79:70:2a:50:c7:58:4a:fb:fc:ce:56:
                    17:6c:8b:dc:41:30:6c:0c:3f:ec:25:94:58:90:41:
                    b1:44:48:31:b3:fc:c4:d3:43:4a:fe:37:38:6d:df:
                    54:66:4b:0d:01:39:6c:f1:48:8d:60:4f:34:28:35:
                    39:c9:20:b2:a8:9e:88:f2:12:4b:de:96:08:f7:a9:
                    ec:fd:95:82:fd:8b:41:70:c7:49:7f:bc:34:12:a0:
                    29:19:51:44:87:96:53:59:e6:3e:69:40:cb:b5:be:
                    51:82:f9:1b:b5:d2:d5:7a:3e:97:40:3a:fd:41:58:
                    40:1c:b8:94:78:20:78:6b:af:55:51:ad:ef:4e:25:
                    ef:f3:aa:87:ab:91:f6:08:7a:f1:90:c7:dd:27:07:
                    1f:d3:6e:8b:b1:67:28:29:69:f2:34:d5:44:11:4b:
                    b0:1f:a7:2b:23:80:89:55:d4:cd:90:ef:60:fb:2f:
                    d5:ae:78:1e:06:70:db:3b:fa:49:c4:9d:a0:df:d9:
                    ab:df:bf:fb:53:43:4d:d3:eb:18:3c:90:40:56:5a:
                    c4:23:2d:dc:2d:a5:09:f9:88:e9:92:11:4e:31:d0:
                    d2:0a:d6:d7:87:bb:01:25:4c:27:2d:6b:eb:00:74:
                    42:96:9e:09:b9:92:98:13:b7:09:cc:29:4a:64:6b:
                    dd:be:66:3c:25:f5:69:67:c2:81:0b:09:bf:3f:e7:
                    28:ae:dd:8d:02:33:74:04:40:b7:7e:b2:75:b7:25:
                    8a:2d:db:cc:cf:c0:9c:f3:e4:5c:2e:aa:41:a7:9b:
                    e9:5c:9d:1d:74:7b:86:f2:0e:62:a3:7e:11:03:39:
                    53:20:4c:01:4f:76:6d:2d:69:4d:f1:03:96:05:2d:
                    46:7a:b2:99:f8:2b:1d:77:15:72:86:82:3a:26:7b:
                    c4:d4:81:07:3e:95:82:24:a2:d3:76:1e:bd:07:c8:
                    93:6d:d1:48:ce:0a:bb:a5:8e:b5:7b:c9:64:ed:7c:
                    4f:c6:c5:44:cb:e3:25:56:11:49:b4:2c:b9:98:52:
                    d4:1d:58:c6:af:9a:55:f2:56:8d:13:a5:dd:fa:d4:
                    b3:e8:c0:b4:d8:db:72:a7:11:04:ff:f3:b3:4b:a3:
                    d1:64:44:f2:bc:e0:75:92:f3:6a:1a:84:80:32:95:
                    34:9e:be:75:df:81:7e:2d:7f:27:18:95:df:b1:9a:
                    64:03:a0:f6:18:39:29:5c:4c:00:84:29:26:ad:c2:
                    63:e7:5d
                Exponent: 65537 (0x10001)
        X509v3 extensions:
            X509v3 Key Usage: critical
                Digital Signature
            X509v3 Basic Constraints: 
                CA:FALSE
            X509v3 Extended Key Usage: 
                E-mail Protection, TLS Web Client Authentication, Microsoft Smartcard Login
            X509v3 Subject Key Identifier: 
                15:79:9E:2E:A3:1B:52:DF:2A:65:61:C6:8A:9A:11:A6:60:35:EA:29
            X509v3 Authority Key Identifier: 
                59:45:A3:F4:E5:81:AF:F8:82:48:22:67:01:F1:1B:19:94:6A:06:F7
            Authority Information Access: 
                CA Issuers - URI:http://pki.scada.local/identity-ca.cer
            X509v3 CRL Distribution Points: 
                Full Name:
                  URI:http://pki.scada.local/identity-ca.crl
            X509v3 Certificate Policies: 
                Policy: Blue Medium Assurance
            X509v3 Subject Alternative Name: 
                <EMPTY>

    Signature Algorithm: sha256WithRSAEncryption
    Signature Value:
        1f:ad:6a:3b:e7:6f:98:68:57:22:23:84:91:3a:46:2e:98:e6:
        f0:f7:54:80:35:13:c0:ab:89:05:66:35:04:1a:46:1c:5c:1b:
        6f:86:fc:4c:81:4b:b7:29:32:bc:79:89:33:27:8e:a1:8c:ed:
        0b:dd:26:1c:be:bd:56:5b:19:ae:1f:87:63:6b:eb:e4:bb:69:
        f2:a4:cd:bf:81:f8:f9:d7:60:69:50:2a:09:c3:9b:6e:aa:a4:
        f8:e6:b0:7f:2a:9b:21:6d:99:ff:44:e8:d5:a9:bc:12:85:fb:
        7f:02:7a:4a:c5:15:eb:fa:a4:8c:40:49:7d:e2:88:51:20:7b:
        6d:bf:f8:d7:cf:0c:2f:0c:06:10:92:d3:12:3f:82:ab:c2:95:
        60:19:98:0a:9d:64:5a:b0:0e:8d:58:54:e8:41:2d:08:c8:f7:
        8f:e4:39:ae:89:91:01:bd:77:51:59:b2:d2:29:20:9e:71:5b:
        02:88:d8:9b:86:73:1c:2a:a0:bc:8b:d6:9c:b5:b3:9c:cd:67:
        e4:a8:98:3a:0f:fa:52:80:5d:bc:5f:e0:6c:28:e9:f6:ba:83:
        45:a3:06:10:cb:86:50:7c:53:49:95:19:5c:67:ea:ff:a5:73:
        78:79:0f:b6:81:fd:91:1a:ec:4d:99:7e:56:b3:0f:e7:c0:1e:
        af:3b:9a:94:f6:ff:2a:53:bc:0e:e3:54:8c:7d:f1:ca:80:d8:
        eb:28:bb:f0:c5:5d:80:63:10:c8:d3:c0:76:7a:29:eb:f6:14:
        56:a1:f7:c7:a3:91:5a:7d:35:56:59:c7:f0:a5:22:b8:17:b1:
        2e:19:b7:ef:5d:53:c2:66:87:c9:44:3c:08:ff:9a:21:a9:80:
        f4:a8:11:2b:c9:bb:73:10:f6:d7:bf:78:3d:7b:f1:a6:3e:4f:
        3d:eb:54:80:f0:c8:48:04:b4:01:6e:0e:16:86:06:a9:04:c5:
        56:04:06:17:49:9a:a3:6d:53:c7:f7:26:c0:40:86:af:7a:9d:
        03:84:2c:05:dd:00:6e:cf:de:37:39:c5:2b:8a:39:f1:be:06:
        04:5e:7c:f6:91:9f:95:0c:a7:79:be:d9:c5:58:88:a3:7d:82:
        ce:92:72:bb:9e:ca:d4:9e:aa:c3:6e:d2:0c:85:f2:8f:4a:bd:
        53:53:69:50:68:a2:de:96:a0:84:f5:9b:8f:82:a9:41:80:1a:
        99:4d:7d:22:fa:ec:ce:4c:cf:69:8f:4e:fa:78:22:38:59:fe:
        ed:47:06:d2:38:bd:25:ea:73:c6:5c:dd:c8:d5:c7:da:95:fc:
        7d:8c:ea:ec:db:4f:22:26:cb:2d:6d:78:13:df:c9:7f:a3:10:
        fa:c0:69:cb:75:6d:3e:fe
-----BEGIN CERTIFICATE-----
MIIGVTCCBD2gAwIBAgIBATANBgkqhkiG9w0BAQsFADBJMQswCQYDVQQGEwJVUzEO
MAwGA1UECgwFU0NBREExFDASBgNVBAsMC0lkZW50aXR5IENBMRQwEgYDVQQDDAtJ
ZGVudGl0eSBDQTAeFw0yMjEyMDIyMDQ5MjRaFw0yNTEyMDEyMDQ5MjRaMGUxCzAJ
BgNVBAYTAlVTMQswCQYDVQQIDAJOQzEQMA4GA1UEBwwHUmFsZWlnaDEOMAwGA1UE
CgwFU0NBREExDTALBgNVBAsMBFVzZXIxGDAWBgNVBAMMD2ZyZWQuZmxpbnRzdG9u
ZTCCAiIwDQYJKoZIhvcNAQEBBQADggIPADCCAgoCggIBAIiMLVPBrAScLJ40wKdM
X711AOf26bPGTjbJ8FMs8+C0Fp9onezxPe3/iGHKfOoJz3lwKlDHWEr7/M5WF2yL
3EEwbAw/7CWUWJBBsURIMbP8xNNDSv43OG3fVGZLDQE5bPFIjWBPNCg1Ockgsqie
iPISS96WCPep7P2Vgv2LQXDHSX+8NBKgKRlRRIeWU1nmPmlAy7W+UYL5G7XS1Xo+
l0A6/UFYQBy4lHggeGuvVVGt704l7/Oqh6uR9gh68ZDH3ScHH9Nui7FnKClp8jTV
RBFLsB+nKyOAiVXUzZDvYPsv1a54HgZw2zv6ScSdoN/Zq9+/+1NDTdPrGDyQQFZa
xCMt3C2lCfmI6ZIRTjHQ0grW14e7ASVMJy1r6wB0QpaeCbmSmBO3CcwpSmRr3b5m
PCX1aWfCgQsJvz/nKK7djQIzdARAt36ydbclii3bzM/AnPPkXC6qQaeb6VydHXR7
hvIOYqN+EQM5UyBMAU92bS1pTfEDlgUtRnqymfgrHXcVcoaCOiZ7xNSBBz6VgiSi
03YevQfIk23RSM4Ku6WOtXvJZO18T8bFRMvjJVYRSbQsuZhS1B1Yxq+aVfJWjROl
3frUs+jAtNjbcqcRBP/zs0uj0WRE8rzgdZLzahqEgDKVNJ6+dd+Bfi1/JxiV37Ga
ZAOg9hg5KVxMAIQpJq3CY+ddAgMBAAGjggEqMIIBJjAOBgNVHQ8BAf8EBAMCB4Aw
CQYDVR0TBAIwADApBgNVHSUEIjAgBggrBgEFBQcDBAYIKwYBBQUHAwIGCisGAQQB
gjcUAgIwHQYDVR0OBBYEFBV5ni6jG1LfKmVhxoqaEaZgNeopMB8GA1UdIwQYMBaA
FFlFo/Tlga/4gkgiZwHxGxmUagb3MEIGCCsGAQUFBwEBBDYwNDAyBggrBgEFBQcw
AoYmaHR0cDovL3BraS5zY2FkYS5sb2NhbC9pZGVudGl0eS1jYS5jZXIwNwYDVR0f
BDAwLjAsoCqgKIYmaHR0cDovL3BraS5zY2FkYS5sb2NhbC9pZGVudGl0eS1jYS5j
cmwwFgYDVR0gBA8wDTALBgkrBgEEAQABBwgwCQYDVR0RBAIwADANBgkqhkiG9w0B
AQsFAAOCAgEAH61qO+dvmGhXIiOEkTpGLpjm8PdUgDUTwKuJBWY1BBpGHFwbb4b8
TIFLtykyvHmJMyeOoYztC90mHL69VlsZrh+HY2vr5Ltp8qTNv4H4+ddgaVAqCcOb
bqqk+OawfyqbIW2Z/0To1am8EoX7fwJ6SsUV6/qkjEBJfeKIUSB7bb/4188MLwwG
EJLTEj+Cq8KVYBmYCp1kWrAOjVhU6EEtCMj3j+Q5romRAb13UVmy0ikgnnFbAojY
m4ZzHCqgvIvWnLWznM1n5KiYOg/6UoBdvF/gbCjp9rqDRaMGEMuGUHxTSZUZXGfq
/6VzeHkPtoH9kRrsTZl+VrMP58AerzualPb/KlO8DuNUjH3xyoDY6yi78MVdgGMQ
yNPAdnop6/YUVqH3x6ORWn01VlnH8KUiuBexLhm3711TwmaHyUQ8CP+aIamA9KgR
K8m7cxD21794PXvxpj5PPetUgPDISAS0AW4OFoYGqQTFVgQGF0mao21Tx/cmwECG
r3qdA4QsBd0Abs/eNznFK4o58b4GBF589pGflQyneb7ZxViIo32CzpJyu57K1J6q
w27SDIXyj0q9U1NpUGii3paghPWbj4KpQYAamU19IvrszkzPaY9O+ngiOFn+7UcG
0ji9JepzxlzdyNXH2pX8fYzq7NtPIibLLW14E9/Jf6MQ+sBpy3VtPv4=
-----END CERTIFICATE-----
