Certificate:
    Data:
        Version: 3 (0x2)
        Serial Number: 1 (0x1)
        Signature Algorithm: sha256WithRSAEncryption
        Issuer: C=US, O=SCADA, OU=Network CA, CN=Network CA
        Validity
            Not Before: Dec  3 11:57:40 2022 GMT
            Not After : Dec  2 11:57:40 2032 GMT
        Subject: C=US, O=SCADA, OU=Identity CA, CN=Identity CA
        Subject Public Key Info:
            Public Key Algorithm: rsaEncryption
                Public-Key: (4096 bit)
                Modulus:
                    00:ca:76:5d:32:25:a1:72:4a:1e:90:e5:95:03:bc:
                    1a:82:dc:75:2d:74:0c:50:be:75:aa:96:21:5d:56:
                    d6:49:52:48:71:06:d1:86:a0:af:29:3d:de:76:9c:
                    ce:a7:f6:a2:11:f0:83:49:8a:8c:24:c9:6e:2c:00:
                    c0:c7:1a:3f:a8:71:c8:5d:19:e5:d2:dd:e9:57:9b:
                    46:7e:7f:fd:03:58:c5:8f:19:ab:23:ce:31:b1:ea:
                    21:d6:88:e7:71:2f:7f:21:2e:6a:ff:3c:f9:38:07:
                    7b:d3:21:9b:1c:07:25:47:97:58:9e:f6:2e:d6:f1:
                    83:95:28:56:57:17:a8:66:e3:1a:d7:43:65:65:e4:
                    69:cb:11:41:c3:c2:b0:be:59:89:1b:8e:ea:f5:a3:
                    b7:ce:0a:e2:ed:71:94:c3:fe:75:bb:90:76:81:0a:
                    2c:22:22:ca:fd:dc:0f:bf:b9:40:21:9b:41:0a:ef:
                    35:ec:3b:eb:0e:88:c4:14:c8:37:8e:63:5d:a0:26:
                    29:40:27:dc:73:44:3f:f2:a1:7d:a4:7d:b2:a0:36:
                    b1:45:96:f5:70:b7:44:d7:f1:e7:9c:28:91:91:f6:
                    95:1b:9f:30:2a:da:ec:63:66:39:59:30:17:a2:ef:
                    0f:9e:7d:25:e4:4a:b9:58:bd:5a:59:e2:6c:30:87:
                    45:62:a3:10:0e:e5:03:eb:8e:2e:7c:33:4f:10:82:
                    05:aa:7f:57:d5:8c:36:96:57:ed:73:0b:37:d2:61:
                    48:5c:84:43:f1:8e:b1:93:91:67:10:a1:ab:ae:2a:
                    33:8f:c3:a9:c8:8a:f9:b7:c0:89:d9:70:86:f4:2c:
                    51:8e:10:c8:5a:cf:17:7a:95:0a:b4:b1:20:db:cd:
                    0f:6a:45:b6:3a:cb:b9:61:5f:c2:13:4d:b8:b4:79:
                    50:f9:9d:56:90:7f:08:14:ff:1b:75:1f:49:68:88:
                    b8:c5:d7:a3:7b:f8:be:b1:f7:61:c3:7d:a4:cc:9f:
                    0c:3e:1b:e2:d9:65:f7:15:ec:7b:51:9c:bd:41:62:
                    58:5f:ee:b1:6f:6e:6c:c9:a5:dc:67:22:bb:b1:31:
                    f3:d0:59:9b:10:36:b9:29:14:b5:7f:f1:99:c0:28:
                    03:c4:bf:4d:16:45:f8:7e:3f:47:11:07:01:81:06:
                    83:86:82:05:73:23:0d:f1:97:66:2e:de:0f:2d:c5:
                    df:54:29:c2:ab:7c:9c:fc:67:11:d0:3f:4b:8b:69:
                    d1:d2:ad:c8:21:83:e8:dd:bb:2d:63:23:5d:a8:43:
                    ab:e2:d7:ea:c4:00:a6:b1:74:b9:d9:fa:66:6b:26:
                    f5:4f:6a:87:ee:77:d7:08:1f:10:09:62:ce:ce:a1:
                    35:9b:cf
                Exponent: 65537 (0x10001)
        X509v3 extensions:
            X509v3 Key Usage: critical
                Certificate Sign, CRL Sign
            X509v3 Basic Constraints: critical
                CA:TRUE, pathlen:0
            X509v3 Subject Key Identifier: 
                F9:65:6C:E2:B5:C8:4E:41:9D:18:6B:D8:29:1A:F9:FD:EA:69:3E:74
            X509v3 Authority Key Identifier: 
                1A:B0:E5:8D:33:03:88:8D:B6:86:B2:4F:B7:57:84:71:D0:AB:FF:70
            Authority Information Access: 
                CA Issuers - URI:http://pki.scada.local/network-ca.cer
            X509v3 CRL Distribution Points: 
                Full Name:
                  URI:http://pki.scada.local/network-ca.crl
            X509v3 Certificate Policies: 
                Policy: Blue Medium Assurance
                Policy: Blue Medium Device Assurance
    Signature Algorithm: sha256WithRSAEncryption
    Signature Value:
        42:b1:dd:a2:a2:a3:c8:2b:3f:13:97:da:c6:82:a6:31:b8:7c:
        4f:da:64:37:17:e0:14:d5:8d:39:f8:b2:27:87:85:2d:3e:37:
        3f:5e:58:28:a8:e2:f7:e3:5b:2f:dc:72:30:45:a5:45:1a:66:
        05:89:88:4d:20:6a:f6:6b:ad:f6:80:5f:41:b6:3b:40:63:35:
        c6:88:98:1f:f0:d2:f3:78:01:e4:6b:4d:47:3a:13:65:9c:61:
        a5:3d:f2:96:e0:6e:c7:f0:71:dd:29:67:39:c9:5e:6b:a2:fa:
        96:bc:07:51:d5:5d:ba:4b:d3:72:ac:32:1f:ce:5c:b8:eb:e6:
        fa:6b:e4:2e:4b:76:76:91:57:27:99:e0:86:cf:4b:2d:02:41:
        fa:d2:2e:a3:44:07:74:17:60:34:0d:d4:ab:f8:e6:3d:fb:7e:
        93:86:d6:0a:da:bc:f6:8d:a2:48:2c:1b:3b:f2:b6:9b:cf:b9:
        87:73:e9:05:14:0c:96:d2:4f:92:75:cc:de:2b:31:77:45:32:
        e3:ab:8e:13:6b:b9:84:24:cb:27:76:6f:25:4d:9a:e7:bd:92:
        71:86:14:59:50:9b:98:8a:9c:74:d8:3a:bf:f3:90:e1:9b:09:
        ee:3d:ba:3d:95:4f:62:60:cc:d2:61:a1:fc:45:56:81:bd:74:
        0c:69:0c:e9:ec:6a:28:4d:14:e8:e2:e0:13:b8:22:86:b5:b5:
        ee:94:ba:f4:f6:9f:df:40:3b:22:58:b8:9c:a9:bd:30:eb:bc:
        ea:ab:3f:5b:c3:1a:e2:97:78:f2:1d:d9:d5:9a:05:11:bc:ad:
        18:59:8e:98:8a:e4:18:cc:e2:6c:d0:a9:51:30:ba:f3:1a:3b:
        b7:69:d6:de:80:cc:b4:08:f6:2b:09:34:38:35:e3:37:bc:f2:
        30:53:90:6d:7a:b7:da:e1:b8:02:a5:a7:86:41:80:c0:75:e0:
        ed:dd:3d:a3:5d:36:c3:75:ec:b7:cd:a4:4c:3c:fb:24:e9:b3:
        24:ee:0e:64:97:23:e1:b7:f9:f9:eb:55:a1:7b:70:62:d9:12:
        5d:9a:b9:e7:54:b9:0e:b8:21:67:de:5c:38:a1:3a:c7:db:d3:
        d4:80:29:18:6c:ab:a3:39:a0:a3:22:27:f3:ee:8a:f4:ac:42:
        82:59:99:e1:4c:e9:05:60:f7:7f:20:b6:96:a0:7c:cb:a2:da:
        ac:19:a4:6f:98:57:b4:e0:14:1c:54:de:3f:ab:6d:fc:a4:9b:
        97:d6:ea:94:0e:63:f4:92:34:b6:4f:d6:b6:9f:c7:16:dd:0a:
        65:67:f4:08:8b:94:e6:8d:93:bc:7d:ea:b4:6f:a1:56:c5:e0:
        e5:dd:2d:54:3d:d5:a9:a8
-----BEGIN CERTIFICATE-----
MIIGFTCCA/2gAwIBAgIBATANBgkqhkiG9w0BAQsFADBHMQswCQYDVQQGEwJVUzEO
MAwGA1UECgwFU0NBREExEzARBgNVBAsMCk5ldHdvcmsgQ0ExEzARBgNVBAMMCk5l
dHdvcmsgQ0EwHhcNMjIxMjAzMTE1NzQwWhcNMzIxMjAyMTE1NzQwWjBJMQswCQYD
VQQGEwJVUzEOMAwGA1UECgwFU0NBREExFDASBgNVBAsMC0lkZW50aXR5IENBMRQw
EgYDVQQDDAtJZGVudGl0eSBDQTCCAiIwDQYJKoZIhvcNAQEBBQADggIPADCCAgoC
ggIBAMp2XTIloXJKHpDllQO8GoLcdS10DFC+daqWIV1W1klSSHEG0Yagryk93nac
zqf2ohHwg0mKjCTJbiwAwMcaP6hxyF0Z5dLd6VebRn5//QNYxY8ZqyPOMbHqIdaI
53EvfyEuav88+TgHe9MhmxwHJUeXWJ72Ltbxg5UoVlcXqGbjGtdDZWXkacsRQcPC
sL5ZiRuO6vWjt84K4u1xlMP+dbuQdoEKLCIiyv3cD7+5QCGbQQrvNew76w6IxBTI
N45jXaAmKUAn3HNEP/KhfaR9sqA2sUWW9XC3RNfx55wokZH2lRufMCra7GNmOVkw
F6LvD559JeRKuVi9WlnibDCHRWKjEA7lA+uOLnwzTxCCBap/V9WMNpZX7XMLN9Jh
SFyEQ/GOsZORZxChq64qM4/DqciK+bfAidlwhvQsUY4QyFrPF3qVCrSxINvND2pF
tjrLuWFfwhNNuLR5UPmdVpB/CBT/G3UfSWiIuMXXo3v4vrH3YcN9pMyfDD4b4tll
9xXse1GcvUFiWF/usW9ubMml3Gciu7Ex89BZmxA2uSkUtX/xmcAoA8S/TRZF+H4/
RxEHAYEGg4aCBXMjDfGXZi7eDy3F31Qpwqt8nPxnEdA/S4tp0dKtyCGD6N27LWMj
XahDq+LX6sQAprF0udn6Zmsm9U9qh+531wgfEAlizs6hNZvPAgMBAAGjggEIMIIB
BDAOBgNVHQ8BAf8EBAMCAQYwEgYDVR0TAQH/BAgwBgEB/wIBADAdBgNVHQ4EFgQU
+WVs4rXITkGdGGvYKRr5/eppPnQwHwYDVR0jBBgwFoAUGrDljTMDiI22hrJPt1eE
cdCr/3AwQQYIKwYBBQUHAQEENTAzMDEGCCsGAQUFBzAChiVodHRwOi8vcGtpLnNj
YWRhLmxvY2FsL25ldHdvcmstY2EuY2VyMDYGA1UdHwQvMC0wK6ApoCeGJWh0dHA6
Ly9wa2kuc2NhZGEubG9jYWwvbmV0d29yay1jYS5jcmwwIwYDVR0gBBwwGjALBgkr
BgEEAQABBwgwCwYJKwYBBAEAAQcJMA0GCSqGSIb3DQEBCwUAA4ICAQBCsd2ioqPI
Kz8Tl9rGgqYxuHxP2mQ3F+AU1Y05+LInh4UtPjc/XlgoqOL341sv3HIwRaVFGmYF
iYhNIGr2a632gF9BtjtAYzXGiJgf8NLzeAHka01HOhNlnGGlPfKW4G7H8HHdKWc5
yV5rovqWvAdR1V26S9NyrDIfzly46+b6a+QuS3Z2kVcnmeCGz0stAkH60i6jRAd0
F2A0DdSr+OY9+36ThtYK2rz2jaJILBs78rabz7mHc+kFFAyW0k+SdczeKzF3RTLj
q44Ta7mEJMsndm8lTZrnvZJxhhRZUJuYipx02Dq/85DhmwnuPbo9lU9iYMzSYaH8
RVaBvXQMaQzp7GooTRTo4uATuCKGtbXulLr09p/fQDsiWLicqb0w67zqqz9bwxri
l3jyHdnVmgURvK0YWY6YiuQYzOJs0KlRMLrzGju3adbegMy0CPYrCTQ4NeM3vPIw
U5Bterfa4bgCpaeGQYDAdeDt3T2jXTbDdey3zaRMPPsk6bMk7g5klyPht/n561Wh
e3Bi2RJdmrnnVLkOuCFn3lw4oTrH29PUgCkYbKujOaCjIifz7or0rEKCWZnhTOkF
YPd/ILaWoHzLotqsGaRvmFe04BQcVN4/q238pJuX1uqUDmP0kjS2T9a2n8cW3Qpl
Z/QIi5TmjZO8feq0b6FWxeDl3S1UPdWpqA==
-----END CERTIFICATE-----
Certificate:
    Data:
        Version: 3 (0x2)
        Serial Number: 2 (0x2)
        Signature Algorithm: sha256WithRSAEncryption
        Issuer: C=US, O=SCADA, OU=Root CA, CN=Root CA
        Validity
            Not Before: Dec  3 11:57:39 2022 GMT
            Not After : Dec 31 23:59:59 2030 GMT
        Subject: C=US, O=SCADA, OU=Network CA, CN=Network CA
        Subject Public Key Info:
            Public Key Algorithm: rsaEncryption
                Public-Key: (4096 bit)
                Modulus:
                    00:ac:eb:3f:a9:88:5f:b3:ea:fa:72:ec:44:e8:f7:
                    6c:53:63:4b:88:23:33:c4:bf:96:bf:c4:25:40:dc:
                    72:39:46:33:1c:1c:dc:11:8d:4d:68:87:c7:5c:37:
                    c0:e5:91:cb:b0:4a:c3:c9:01:db:74:42:47:55:ba:
                    5c:a3:4a:16:ce:05:ff:f7:13:32:1e:49:cc:ae:96:
                    25:50:e5:c8:c4:ef:33:4b:68:ad:26:ee:b1:33:31:
                    04:b0:75:9a:d2:27:d7:cc:75:e1:6b:20:85:a7:46:
                    30:6b:f1:7f:88:9c:a6:ca:b3:ac:d8:30:ba:30:c0:
                    eb:c1:ad:a2:14:a4:32:a0:97:9d:fd:6b:f1:3c:77:
                    6d:fe:f5:3a:83:03:2b:a4:4c:99:fc:2f:37:84:56:
                    01:d4:f1:8e:9d:03:8e:af:a9:62:6c:f8:c0:90:71:
                    ee:d1:ec:0d:9c:f3:11:01:87:32:c3:a3:f9:7b:26:
                    76:0b:55:ae:36:82:11:0e:fc:f0:49:ad:a3:01:40:
                    62:1a:8d:8a:03:19:3c:d5:43:e2:13:49:4d:19:fb:
                    1e:22:41:65:f8:f4:66:97:16:1f:9f:66:4b:0b:02:
                    05:9e:86:2b:53:63:71:85:2f:80:f6:e3:0d:bc:d0:
                    29:73:46:8d:43:c2:2b:05:6e:5e:15:ca:cf:d3:b6:
                    5f:02:8a:05:fc:3f:a0:07:f6:6c:98:7b:05:95:d8:
                    d6:49:e1:b6:d3:92:89:73:2b:ea:ec:59:fd:63:c1:
                    71:e1:c7:dd:43:9c:ff:c1:2b:18:84:f6:05:1c:68:
                    35:18:fe:e4:86:73:c8:a7:9e:e7:f8:ad:0a:f1:98:
                    8e:21:c9:be:6f:c9:3d:59:ce:e9:97:ff:66:bb:19:
                    95:19:a8:e4:2a:c4:28:3e:e2:7c:c0:0c:d3:fd:17:
                    e9:f1:2e:1a:69:f9:0b:e2:68:b9:c8:9a:f2:23:29:
                    10:4f:29:3c:ce:1c:49:e4:af:5f:d8:af:b4:a5:9d:
                    24:89:20:93:fb:47:5f:e1:69:18:1c:12:d2:1e:1f:
                    06:57:d4:ac:53:92:7f:36:0e:f7:95:bc:d5:17:e4:
                    5b:c8:f1:7a:76:da:9d:61:a6:f3:c2:3d:af:3e:57:
                    45:b7:a1:84:99:db:2a:7c:67:c1:ef:f6:15:6b:72:
                    39:c7:87:b2:3f:e2:f4:6e:d2:e4:5b:ba:f7:c9:37:
                    98:fa:48:cd:33:a9:f1:2b:b2:06:32:88:98:8d:f9:
                    2d:24:16:26:b3:37:2d:a4:9b:eb:62:ac:1b:3d:c6:
                    b8:b0:d0:f9:41:9f:0a:1f:da:b5:00:0f:e0:1f:19:
                    2f:97:01:85:ef:ed:e2:39:dc:67:08:95:7b:68:0c:
                    fa:b2:b7
                Exponent: 65537 (0x10001)
        X509v3 extensions:
            X509v3 Key Usage: critical
                Certificate Sign, CRL Sign
            X509v3 Basic Constraints: critical
                CA:TRUE
            X509v3 Subject Key Identifier: 
                1A:B0:E5:8D:33:03:88:8D:B6:86:B2:4F:B7:57:84:71:D0:AB:FF:70
            X509v3 Authority Key Identifier: 
                20:AB:AB:F4:0B:8A:1B:10:E4:3A:32:C8:18:46:01:E3:48:3B:95:5F
            Authority Information Access: 
                CA Issuers - URI:http://pki.scada.local/root-ca.cer
            X509v3 CRL Distribution Points: 
                Full Name:
                  URI:http://pki.scada.local/root-ca.crl
            X509v3 Certificate Policies: 
                Policy: Blue Medium Assurance
                Policy: Blue Medium Device Assurance
    Signature Algorithm: sha256WithRSAEncryption
    Signature Value:
        64:a6:5d:ba:cc:24:f8:6e:ce:72:38:37:fc:4b:de:6d:51:bb:
        b6:70:42:51:53:3b:7a:ea:58:f2:cb:eb:79:7f:0f:3c:62:74:
        74:06:c1:88:0e:f9:3f:cc:e5:6b:0f:b1:1b:75:46:04:b3:17:
        81:40:24:8b:0a:4d:b1:7f:16:30:92:9b:a8:a2:92:e8:8e:44:
        c1:4e:32:32:8f:2c:e2:39:c8:18:b2:87:f4:28:11:48:9f:73:
        b2:94:b3:0b:63:c8:ae:2f:72:4b:91:40:97:22:0a:8b:d1:90:
        e3:6c:43:8f:14:07:a7:73:9d:f7:a3:12:46:a9:48:e7:a0:b4:
        3e:ca:50:10:ee:38:16:83:15:5c:68:ba:be:e0:c6:00:9d:1b:
        79:b4:31:11:f7:58:72:85:f2:b4:bd:72:63:9d:ed:f8:62:43:
        a5:18:86:8a:d2:b3:ae:31:45:e6:83:02:66:51:e3:3e:3d:49:
        e4:fc:ab:42:59:28:9e:00:44:91:b0:96:c0:59:32:8f:3f:87:
        7c:48:f7:41:bd:68:b5:a6:93:67:1a:34:d9:64:d9:cf:98:e1:
        0a:4d:4f:4b:6f:f9:a7:42:0e:d6:47:77:2f:46:e5:20:03:e5:
        a7:c5:03:c4:02:79:39:ba:e6:ed:7a:a2:f3:62:00:b1:e0:3d:
        3f:8f:a9:97:ab:da:68:5f:2a:fd:b3:60:ed:43:25:49:96:41:
        4c:bf:4a:1f:e3:a5:ab:be:12:77:07:7b:b4:ab:23:32:d7:df:
        b1:18:2f:db:fb:5a:09:6a:f0:bc:07:4e:dc:f4:1e:90:96:5f:
        b7:15:93:30:05:97:5c:89:30:ef:14:1d:72:e9:87:57:74:72:
        39:1c:f0:ad:40:50:8c:bb:d8:93:31:cc:80:79:87:9b:2d:02:
        f2:0d:db:ab:a2:a7:96:bd:2a:cd:80:b0:64:6b:5b:f7:2c:b7:
        9a:bf:a5:d8:c0:25:99:fa:61:b8:44:bb:1c:eb:ee:2d:03:54:
        96:0d:19:0e:85:cd:d1:67:58:ce:56:a5:0b:ee:3d:1e:6f:2c:
        05:ff:af:77:e2:ef:c9:c7:f1:bf:0c:3b:57:a6:4f:54:70:b6:
        6c:c4:c3:46:9d:99:21:14:a6:40:e6:1f:a7:74:02:29:5f:ad:
        9e:17:ce:85:c4:bd:20:96:43:c8:6b:86:62:07:6d:31:0f:f0:
        e8:76:ed:85:8e:88:ad:6f:80:95:3b:90:ca:50:6d:70:80:f5:
        3f:49:25:02:fd:83:84:e1:7a:63:b3:e6:d9:78:02:64:d0:cd:
        5f:c5:47:1e:97:b0:e0:08:04:a1:b8:7c:ce:25:61:1e:b1:42:
        79:48:b5:e3:97:2b:8d:84
-----BEGIN CERTIFICATE-----
MIIGAjCCA+qgAwIBAgIBAjANBgkqhkiG9w0BAQsFADBBMQswCQYDVQQGEwJVUzEO
MAwGA1UECgwFU0NBREExEDAOBgNVBAsMB1Jvb3QgQ0ExEDAOBgNVBAMMB1Jvb3Qg
Q0EwHhcNMjIxMjAzMTE1NzM5WhcNMzAxMjMxMjM1OTU5WjBHMQswCQYDVQQGEwJV
UzEOMAwGA1UECgwFU0NBREExEzARBgNVBAsMCk5ldHdvcmsgQ0ExEzARBgNVBAMM
Ck5ldHdvcmsgQ0EwggIiMA0GCSqGSIb3DQEBAQUAA4ICDwAwggIKAoICAQCs6z+p
iF+z6vpy7ETo92xTY0uIIzPEv5a/xCVA3HI5RjMcHNwRjU1oh8dcN8DlkcuwSsPJ
Adt0QkdVulyjShbOBf/3EzIeScyuliVQ5cjE7zNLaK0m7rEzMQSwdZrSJ9fMdeFr
IIWnRjBr8X+InKbKs6zYMLowwOvBraIUpDKgl539a/E8d23+9TqDAyukTJn8LzeE
VgHU8Y6dA46vqWJs+MCQce7R7A2c8xEBhzLDo/l7JnYLVa42ghEO/PBJraMBQGIa
jYoDGTzVQ+ITSU0Z+x4iQWX49GaXFh+fZksLAgWehitTY3GFL4D24w280ClzRo1D
wisFbl4Vys/Ttl8CigX8P6AH9myYewWV2NZJ4bbTkolzK+rsWf1jwXHhx91DnP/B
KxiE9gUcaDUY/uSGc8innuf4rQrxmI4hyb5vyT1ZzumX/2a7GZUZqOQqxCg+4nzA
DNP9F+nxLhpp+QviaLnImvIjKRBPKTzOHEnkr1/Yr7SlnSSJIJP7R1/haRgcEtIe
HwZX1KxTkn82DveVvNUX5FvI8Xp22p1hpvPCPa8+V0W3oYSZ2yp8Z8Hv9hVrcjnH
h7I/4vRu0uRbuvfJN5j6SM0zqfErsgYyiJiN+S0kFiazNy2km+tirBs9xriw0PlB
nwof2rUAD+AfGS+XAYXv7eI53GcIlXtoDPqytwIDAQABo4H+MIH7MA4GA1UdDwEB
/wQEAwIBBjAPBgNVHRMBAf8EBTADAQH/MB0GA1UdDgQWBBQasOWNMwOIjbaGsk+3
V4Rx0Kv/cDAfBgNVHSMEGDAWgBQgq6v0C4obEOQ6MsgYRgHjSDuVXzA+BggrBgEF
BQcBAQQyMDAwLgYIKwYBBQUHMAKGImh0dHA6Ly9wa2kuc2NhZGEubG9jYWwvcm9v
dC1jYS5jZXIwMwYDVR0fBCwwKjAooCagJIYiaHR0cDovL3BraS5zY2FkYS5sb2Nh
bC9yb290LWNhLmNybDAjBgNVHSAEHDAaMAsGCSsGAQQBAAEHCDALBgkrBgEEAQAB
BwkwDQYJKoZIhvcNAQELBQADggIBAGSmXbrMJPhuznI4N/xL3m1Ru7ZwQlFTO3rq
WPLL63l/DzxidHQGwYgO+T/M5WsPsRt1RgSzF4FAJIsKTbF/FjCSm6iikuiORMFO
MjKPLOI5yBiyh/QoEUifc7KUswtjyK4vckuRQJciCovRkONsQ48UB6dznfejEkap
SOegtD7KUBDuOBaDFVxour7gxgCdG3m0MRH3WHKF8rS9cmOd7fhiQ6UYhorSs64x
ReaDAmZR4z49SeT8q0JZKJ4ARJGwlsBZMo8/h3xI90G9aLWmk2caNNlk2c+Y4QpN
T0tv+adCDtZHdy9G5SAD5afFA8QCeTm65u16ovNiALHgPT+PqZer2mhfKv2zYO1D
JUmWQUy/Sh/jpau+EncHe7SrIzLX37EYL9v7Wglq8LwHTtz0HpCWX7cVkzAFl1yJ
MO8UHXLph1d0cjkc8K1AUIy72JMxzIB5h5stAvIN26uip5a9Ks2AsGRrW/cst5q/
pdjAJZn6YbhEuxzr7i0DVJYNGQ6FzdFnWM5WpQvuPR5vLAX/r3fi78nH8b8MO1em
T1RwtmzEw0admSEUpkDmH6d0AilfrZ4XzoXEvSCWQ8hrhmIHbTEP8Oh27YWOiK1v
gJU7kMpQbXCA9T9JJQL9g4ThemOz5tl4AmTQzV/FRx6XsOAIBKG4fM4lYR6xQnlI
teOXK42E
-----END CERTIFICATE-----
Certificate:
    Data:
        Version: 3 (0x2)
        Serial Number: 1 (0x1)
        Signature Algorithm: sha256WithRSAEncryption
        Issuer: C=US, O=SCADA, OU=Root CA, CN=Root CA
        Validity
            Not Before: Dec  3 11:57:37 2022 GMT
            Not After : Dec  2 11:57:37 2032 GMT
        Subject: C=US, O=SCADA, OU=Root CA, CN=Root CA
        Subject Public Key Info:
            Public Key Algorithm: rsaEncryption
                Public-Key: (4096 bit)
                Modulus:
                    00:93:e9:97:01:62:04:f3:52:36:72:8b:20:0e:40:
                    81:64:43:d7:19:2b:51:b2:fb:01:90:22:71:40:75:
                    5a:2a:1e:7f:3a:44:93:ee:b0:d7:5f:d0:dd:1a:2c:
                    6e:44:eb:a9:36:4b:26:60:ea:ae:b4:7b:4b:28:f8:
                    80:4e:e1:c1:af:dc:67:e4:ba:69:f1:b9:ce:10:a9:
                    71:bc:26:64:3b:57:b0:5f:58:bf:cc:d0:cb:9b:66:
                    fe:c4:f4:87:2c:40:2a:f9:11:1b:e9:f9:ec:b9:74:
                    b2:c0:10:98:3a:fa:76:ff:07:f6:d7:cb:c1:fe:32:
                    2c:87:1a:91:0f:d7:80:a7:a3:7b:31:0d:28:b7:08:
                    1d:57:11:36:a9:aa:dc:c7:4d:77:e6:fb:b4:25:e1:
                    35:09:ab:68:da:9d:38:1a:ff:c0:52:e0:7b:12:8e:
                    33:97:47:c9:78:71:ae:5b:b5:aa:71:c8:c7:1e:76:
                    44:95:d9:98:1b:7f:1d:2a:2f:49:e8:b6:01:70:9d:
                    b3:98:3e:b5:97:3f:66:dc:17:fd:48:c9:9c:55:59:
                    be:75:fb:d8:46:c1:20:ff:4c:71:b7:fd:88:dd:15:
                    aa:61:cc:e5:41:84:54:a5:e9:21:eb:11:7f:28:41:
                    ab:09:13:8c:8e:e0:ce:45:93:da:8e:44:5b:fa:32:
                    8b:5f:09:12:bd:da:82:3d:b1:65:0a:3f:12:47:09:
                    64:57:46:26:e7:c9:95:df:e7:9f:88:5a:79:d4:51:
                    96:5b:ed:dd:7c:27:c4:e6:54:21:c1:c2:53:76:11:
                    ff:a1:52:42:3f:bb:41:62:93:1d:15:28:d4:89:1f:
                    c8:7c:7a:fa:9c:73:6f:4c:89:aa:cd:29:72:49:5d:
                    6c:fb:15:1a:8e:16:39:79:37:e9:7b:a0:85:2b:b7:
                    24:44:ec:ae:f1:c1:a1:72:aa:bb:12:55:d2:bf:ac:
                    b7:57:9c:a9:73:a9:fd:84:c0:96:95:bf:45:1b:55:
                    62:2f:64:9f:e9:87:4b:19:37:90:22:e1:14:94:6a:
                    b6:2f:e1:d1:2a:76:44:65:ee:35:5c:fe:fb:66:1e:
                    49:33:bf:3c:ff:7c:b4:5e:2e:dd:78:9a:9e:7e:f5:
                    26:02:31:22:b0:88:84:79:18:68:6f:d8:8e:5b:56:
                    1c:22:ca:da:63:36:a8:71:92:95:8c:56:d9:19:46:
                    d1:a6:0c:55:07:b5:f9:98:3c:e1:b0:bf:f6:a3:fa:
                    aa:89:f3:d8:9a:55:4b:1a:41:83:6a:6c:46:5f:48:
                    bd:14:43:2a:29:65:a8:e6:2d:87:33:d1:9c:c3:2e:
                    9c:3f:cb:14:6a:3a:b4:29:d8:bd:b6:d5:51:f4:d6:
                    d0:83:c3
                Exponent: 65537 (0x10001)
        X509v3 extensions:
            X509v3 Key Usage: critical
                Certificate Sign, CRL Sign
            X509v3 Basic Constraints: critical
                CA:TRUE
            X509v3 Subject Key Identifier: 
                20:AB:AB:F4:0B:8A:1B:10:E4:3A:32:C8:18:46:01:E3:48:3B:95:5F
            X509v3 Authority Key Identifier: 
                20:AB:AB:F4:0B:8A:1B:10:E4:3A:32:C8:18:46:01:E3:48:3B:95:5F
    Signature Algorithm: sha256WithRSAEncryption
    Signature Value:
        61:e6:53:d7:fd:8c:00:08:9b:9a:46:48:b4:00:d9:6d:a7:d9:
        c0:0b:28:3b:bd:30:cc:59:ae:9f:32:2f:32:d6:b7:7d:bc:5f:
        36:5f:38:f3:de:62:01:1f:a7:25:cd:1b:cb:08:f7:22:41:3c:
        32:3a:fd:ed:62:24:45:7f:ce:a5:1e:30:9b:75:10:bf:6b:05:
        ea:09:99:a3:4f:cb:75:0a:f2:6c:c2:85:fc:75:35:04:67:0b:
        34:13:52:5a:88:63:69:ff:e7:e1:9c:5e:65:7a:8e:7b:d1:78:
        80:62:b5:09:44:68:28:4a:35:6c:92:c5:19:1d:bc:09:af:e0:
        41:88:d7:66:65:0b:b7:d6:ff:de:4a:15:47:c0:87:0c:7a:cc:
        8b:46:df:3f:bf:a7:8b:b3:d5:b9:ae:d2:74:74:83:7e:6f:95:
        bd:50:13:a8:35:0b:be:5f:08:aa:87:42:85:28:57:ef:82:26:
        fa:d9:2c:2f:18:83:85:a4:03:1a:d8:23:77:bf:7e:7f:1a:16:
        09:4d:10:38:d3:af:46:e8:f0:93:73:7e:df:d8:3b:8c:4f:7b:
        6d:61:fb:19:3e:e1:1b:e8:ff:68:79:d4:d9:18:0d:df:27:a8:
        a8:10:95:e2:99:ec:fc:35:a9:f3:60:17:02:70:b8:06:7c:d4:
        62:2e:64:52:47:3e:bc:19:ed:7c:99:21:de:2e:00:50:65:79:
        ea:23:f4:2a:4a:aa:82:53:a3:ae:9d:fc:ba:d7:49:af:28:be:
        1d:c7:4c:44:59:f4:9b:6a:46:7a:29:aa:35:dc:09:89:20:25:
        53:71:a9:90:0c:d4:3b:c3:f8:9b:17:9f:92:d4:3b:72:46:07:
        1b:70:af:8e:27:fb:f0:c6:43:d1:3b:73:13:12:39:8f:ea:51:
        b9:8f:16:b5:54:c5:4d:82:25:d1:8b:fe:b3:e1:96:6a:78:34:
        65:12:20:a9:ab:d1:1c:35:8a:71:45:be:fa:3f:e7:27:a5:67:
        7e:c3:0a:7e:12:e1:da:de:a7:33:d8:ee:01:b1:de:ee:1f:b4:
        c7:a8:83:f1:f5:22:7f:41:de:a9:11:f6:a5:4c:4b:cd:72:40:
        fb:81:58:0f:a9:df:6b:b0:ae:97:92:34:b9:48:ef:fd:bc:fa:
        a8:da:c8:5d:53:62:82:a0:47:a8:dc:08:9f:a8:58:05:b7:d4:
        42:f5:49:d1:5c:ac:f7:73:2b:c6:c4:60:b5:78:fc:59:f0:c1:
        26:4b:75:00:2c:39:5c:22:20:1d:68:6d:eb:54:be:0c:51:c0:
        7c:97:b8:78:ef:a2:5a:80:bd:42:33:c7:11:3a:6c:04:fb:7b:
        06:dc:98:38:c7:5d:df:e6
-----BEGIN CERTIFICATE-----
MIIFYDCCA0igAwIBAgIBATANBgkqhkiG9w0BAQsFADBBMQswCQYDVQQGEwJVUzEO
MAwGA1UECgwFU0NBREExEDAOBgNVBAsMB1Jvb3QgQ0ExEDAOBgNVBAMMB1Jvb3Qg
Q0EwHhcNMjIxMjAzMTE1NzM3WhcNMzIxMjAyMTE1NzM3WjBBMQswCQYDVQQGEwJV
UzEOMAwGA1UECgwFU0NBREExEDAOBgNVBAsMB1Jvb3QgQ0ExEDAOBgNVBAMMB1Jv
b3QgQ0EwggIiMA0GCSqGSIb3DQEBAQUAA4ICDwAwggIKAoICAQCT6ZcBYgTzUjZy
iyAOQIFkQ9cZK1Gy+wGQInFAdVoqHn86RJPusNdf0N0aLG5E66k2SyZg6q60e0so
+IBO4cGv3Gfkumnxuc4QqXG8JmQ7V7BfWL/M0MubZv7E9IcsQCr5ERvp+ey5dLLA
EJg6+nb/B/bXy8H+MiyHGpEP14Cno3sxDSi3CB1XETapqtzHTXfm+7Ql4TUJq2ja
nTga/8BS4HsSjjOXR8l4ca5btapxyMcedkSV2Zgbfx0qL0notgFwnbOYPrWXP2bc
F/1IyZxVWb51+9hGwSD/THG3/YjdFaphzOVBhFSl6SHrEX8oQasJE4yO4M5Fk9qO
RFv6MotfCRK92oI9sWUKPxJHCWRXRibnyZXf55+IWnnUUZZb7d18J8TmVCHBwlN2
Ef+hUkI/u0Fikx0VKNSJH8h8evqcc29MiarNKXJJXWz7FRqOFjl5N+l7oIUrtyRE
7K7xwaFyqrsSVdK/rLdXnKlzqf2EwJaVv0UbVWIvZJ/ph0sZN5Ai4RSUarYv4dEq
dkRl7jVc/vtmHkkzvzz/fLReLt14mp5+9SYCMSKwiIR5GGhv2I5bVhwiytpjNqhx
kpWMVtkZRtGmDFUHtfmYPOGwv/aj+qqJ89iaVUsaQYNqbEZfSL0UQyopZajmLYcz
0ZzDLpw/yxRqOrQp2L221VH01tCDwwIDAQABo2MwYTAOBgNVHQ8BAf8EBAMCAQYw
DwYDVR0TAQH/BAUwAwEB/zAdBgNVHQ4EFgQUIKur9AuKGxDkOjLIGEYB40g7lV8w
HwYDVR0jBBgwFoAUIKur9AuKGxDkOjLIGEYB40g7lV8wDQYJKoZIhvcNAQELBQAD
ggIBAGHmU9f9jAAIm5pGSLQA2W2n2cALKDu9MMxZrp8yLzLWt328XzZfOPPeYgEf
pyXNG8sI9yJBPDI6/e1iJEV/zqUeMJt1EL9rBeoJmaNPy3UK8mzChfx1NQRnCzQT
UlqIY2n/5+GcXmV6jnvReIBitQlEaChKNWySxRkdvAmv4EGI12ZlC7fW/95KFUfA
hwx6zItG3z+/p4uz1bmu0nR0g35vlb1QE6g1C75fCKqHQoUoV++CJvrZLC8Yg4Wk
AxrYI3e/fn8aFglNEDjTr0bo8JNzft/YO4xPe21h+xk+4Rvo/2h51NkYDd8nqKgQ
leKZ7Pw1qfNgFwJwuAZ81GIuZFJHPrwZ7XyZId4uAFBleeoj9CpKqoJTo66d/LrX
Sa8ovh3HTERZ9JtqRnopqjXcCYkgJVNxqZAM1DvD+JsXn5LUO3JGBxtwr44n+/DG
Q9E7cxMSOY/qUbmPFrVUxU2CJdGL/rPhlmp4NGUSIKmr0Rw1inFFvvo/5yelZ37D
Cn4S4drepzPY7gGx3u4ftMeog/H1In9B3qkR9qVMS81yQPuBWA+p32uwrpeSNLlI
7/28+qjayF1TYoKgR6jcCJ+oWAW31EL1SdFcrPdzK8bEYLV4/FnwwSZLdQAsOVwi
IB1obetUvgxRwHyXuHjvolqAvUIzxxE6bAT7ewbcmDjHXd/m
-----END CERTIFICATE-----
