Certificate:
    Data:
        Version: 3 (0x2)
        Serial Number: 1 (0x1)
        Signature Algorithm: sha256WithRSAEncryption
        Issuer: C=US, O=SCADA, OU=Root CA, CN=Root CA
        Validity
            Not Before: Dec  3 19:20:52 2022 GMT
            Not After : Dec  2 19:20:52 2032 GMT
        Subject: C=US, O=SCADA, OU=Root CA, CN=Root CA
        Subject Public Key Info:
            Public Key Algorithm: rsaEncryption
                Public-Key: (4096 bit)
                Modulus:
                    00:d4:d1:20:5e:d0:a9:6c:1d:11:ee:18:20:a8:e0:
                    d2:f7:d3:2a:e4:2c:f1:0f:08:c1:ac:fe:67:70:01:
                    7e:8c:e6:54:de:a4:8f:52:46:d6:f3:f3:30:1a:7e:
                    2e:08:05:af:49:3d:59:be:61:28:cf:ba:c2:7a:f7:
                    03:12:a3:4b:ef:5e:0f:04:b0:86:f0:55:e0:63:bf:
                    92:a1:bf:83:f1:48:4a:fc:2b:68:90:2b:53:ab:21:
                    9e:be:20:84:51:1b:26:f2:0e:51:2e:4f:bb:c9:57:
                    7c:a8:a4:56:41:1e:e1:53:f2:23:10:aa:6f:38:40:
                    bc:a2:30:e1:af:00:c8:f6:76:ad:46:32:8c:9c:eb:
                    80:16:19:ba:02:02:9c:84:19:b6:f8:f7:02:c8:3a:
                    be:5c:7a:20:c4:2f:18:84:97:17:53:96:6e:8d:41:
                    4d:5f:67:4b:9c:a0:e7:8a:6e:3a:99:14:a8:2c:6b:
                    89:cb:9b:40:6a:39:5c:35:86:b2:d6:97:3a:8a:6e:
                    8e:51:3e:16:e1:14:4e:80:11:ce:38:ba:88:4a:7d:
                    68:a3:05:02:9e:9c:9a:eb:fe:a4:08:55:5a:a8:1a:
                    90:70:37:ad:15:e4:9d:93:c5:61:45:6c:ce:2e:11:
                    c2:33:c3:98:fb:e5:37:93:5b:19:29:d0:e0:3c:8b:
                    b0:f2:08:24:d1:85:b7:eb:20:cc:6a:3a:15:4a:a9:
                    e6:c9:45:28:7b:54:2d:c7:0c:ad:1e:75:a1:13:13:
                    3d:92:c6:c5:d1:25:db:20:1d:91:cb:bc:d4:43:cd:
                    06:c1:9f:ed:2e:5b:6c:6a:8d:64:a9:76:27:2f:6f:
                    bf:d6:b5:e5:c4:6f:3d:f2:72:dc:50:ed:dd:3f:30:
                    50:ab:b6:ef:50:92:ce:d5:d4:4a:cb:31:93:0a:39:
                    bc:78:22:10:a9:95:77:47:fa:f8:cc:f7:13:b0:4c:
                    43:fc:2e:1f:07:76:8e:9c:8e:9d:1c:5c:ab:6c:43:
                    73:f0:dc:27:9a:1b:21:e9:99:29:66:3a:bd:55:13:
                    7e:82:01:d3:84:56:0a:10:79:29:96:5d:7b:2d:19:
                    5f:56:8c:58:73:83:27:61:77:ef:d0:6f:9a:09:4d:
                    d9:40:03:68:ca:16:cc:06:3e:9a:15:a8:3e:9e:41:
                    eb:39:c1:ce:50:66:66:a5:06:e2:ca:2a:f6:09:38:
                    b5:86:85:c3:d4:ad:f4:38:d5:a1:7c:55:a7:2b:63:
                    72:e5:dd:08:0a:c0:5a:b1:0b:47:f5:51:1f:10:e3:
                    6f:4a:ab:57:f9:66:1f:6c:fd:e0:38:41:b8:45:55:
                    55:eb:be:6a:42:10:73:50:65:de:3d:16:11:1b:7b:
                    bd:f6:37
                Exponent: 65537 (0x10001)
        X509v3 extensions:
            X509v3 Key Usage: critical
                Certificate Sign, CRL Sign
            X509v3 Basic Constraints: critical
                CA:TRUE
            X509v3 Subject Key Identifier: 
                76:33:6D:DD:E6:55:B1:A5:8E:43:7F:00:EA:0A:37:43:93:D2:DB:3E
            X509v3 Authority Key Identifier: 
                76:33:6D:DD:E6:55:B1:A5:8E:43:7F:00:EA:0A:37:43:93:D2:DB:3E
    Signature Algorithm: sha256WithRSAEncryption
    Signature Value:
        02:7d:a2:4e:b3:43:fc:08:46:ff:69:8a:ce:81:6d:6f:15:13:
        56:2a:b7:a6:d6:a7:00:87:07:b1:23:1e:5f:2f:cc:0f:1d:4b:
        67:5e:ba:8b:1c:df:01:e2:7c:c3:10:21:0a:5d:f6:eb:59:03:
        96:c2:8f:8d:21:3a:07:66:17:4a:e6:70:e2:06:30:a2:82:71:
        63:d1:af:78:60:68:f5:62:39:e0:15:0c:d2:b3:28:61:8f:0f:
        d6:61:09:85:37:da:2d:40:79:52:03:31:95:7d:d2:a9:1d:f1:
        7c:9e:30:3d:03:cf:25:d2:24:2f:e9:8a:9d:c4:04:e9:92:db:
        96:dd:42:d1:5e:1b:ca:7a:1c:79:db:dc:06:78:2d:1a:d8:dd:
        47:52:65:4a:c7:b4:be:1a:b6:a2:3f:46:f9:8b:e1:bc:79:30:
        6f:d3:ec:7d:93:8a:c9:ea:a7:41:29:3f:a2:87:be:96:21:ea:
        2f:e8:04:50:cc:be:d1:60:54:fd:6b:f6:b7:ad:fc:b4:fa:1b:
        8a:77:4a:df:87:bb:60:a2:59:d1:df:8a:b8:53:41:0b:ea:88:
        58:84:4f:1e:13:0e:c3:d1:74:82:61:38:83:9c:8a:97:fd:a9:
        2a:65:8c:75:69:6e:49:5c:8e:ed:24:be:9d:7f:d0:24:d9:d1:
        24:d1:cd:45:dd:09:3b:35:3c:4a:7b:e8:0e:9a:7d:a4:20:14:
        4e:a9:6d:4d:6a:b2:8f:13:9d:62:5a:a1:bf:b9:5f:7e:62:b0:
        fc:e0:fb:fd:3d:f9:ca:98:43:97:ac:2a:24:26:56:2e:fd:cb:
        b9:31:16:5a:03:e8:93:e3:aa:af:9f:d8:7f:72:87:82:44:51:
        cf:39:02:34:40:6c:47:b7:31:ab:24:c6:a2:9f:ac:0a:a0:92:
        86:be:82:57:f6:f6:b5:28:67:0d:5b:3e:34:43:cd:74:f6:f3:
        2b:fa:52:95:0a:27:ae:88:89:e7:71:56:6a:96:95:4c:01:e1:
        33:77:88:91:e4:2c:0b:de:3f:a1:b6:c0:52:31:ac:ed:af:72:
        8c:1c:da:bb:64:ef:fd:32:73:86:44:a6:14:e4:9c:d0:f7:a7:
        c4:a4:bc:9e:fc:a7:0a:95:89:8c:86:c6:18:62:2e:71:d8:83:
        04:36:6f:a7:da:4a:a5:3f:3b:ca:4b:f3:40:93:5f:89:72:59:
        9a:d2:76:5f:07:21:44:6d:48:c2:60:09:44:1a:56:5f:24:96:
        c5:db:2a:13:36:25:bc:1f:0f:1f:c2:0e:1b:36:43:59:12:1e:
        4d:05:cb:d1:4b:e7:8a:63:39:8b:4e:65:ad:94:0e:50:a9:77:
        ae:02:d7:19:54:0b:b6:93
-----BEGIN CERTIFICATE-----
MIIFYDCCA0igAwIBAgIBATANBgkqhkiG9w0BAQsFADBBMQswCQYDVQQGEwJVUzEO
MAwGA1UECgwFU0NBREExEDAOBgNVBAsMB1Jvb3QgQ0ExEDAOBgNVBAMMB1Jvb3Qg
Q0EwHhcNMjIxMjAzMTkyMDUyWhcNMzIxMjAyMTkyMDUyWjBBMQswCQYDVQQGEwJV
UzEOMAwGA1UECgwFU0NBREExEDAOBgNVBAsMB1Jvb3QgQ0ExEDAOBgNVBAMMB1Jv
b3QgQ0EwggIiMA0GCSqGSIb3DQEBAQUAA4ICDwAwggIKAoICAQDU0SBe0KlsHRHu
GCCo4NL30yrkLPEPCMGs/mdwAX6M5lTepI9SRtbz8zAafi4IBa9JPVm+YSjPusJ6
9wMSo0vvXg8EsIbwVeBjv5Khv4PxSEr8K2iQK1OrIZ6+IIRRGybyDlEuT7vJV3yo
pFZBHuFT8iMQqm84QLyiMOGvAMj2dq1GMoyc64AWGboCApyEGbb49wLIOr5ceiDE
LxiElxdTlm6NQU1fZ0ucoOeKbjqZFKgsa4nLm0BqOVw1hrLWlzqKbo5RPhbhFE6A
Ec44uohKfWijBQKenJrr/qQIVVqoGpBwN60V5J2TxWFFbM4uEcIzw5j75TeTWxkp
0OA8i7DyCCTRhbfrIMxqOhVKqebJRSh7VC3HDK0edaETEz2SxsXRJdsgHZHLvNRD
zQbBn+0uW2xqjWSpdicvb7/WteXEbz3yctxQ7d0/MFCrtu9Qks7V1ErLMZMKObx4
IhCplXdH+vjM9xOwTEP8Lh8Hdo6cjp0cXKtsQ3Pw3CeaGyHpmSlmOr1VE36CAdOE
VgoQeSmWXXstGV9WjFhzgydhd+/Qb5oJTdlAA2jKFswGPpoVqD6eQes5wc5QZmal
BuLKKvYJOLWGhcPUrfQ41aF8VacrY3Ll3QgKwFqxC0f1UR8Q429Kq1f5Zh9s/eA4
QbhFVVXrvmpCEHNQZd49FhEbe732NwIDAQABo2MwYTAOBgNVHQ8BAf8EBAMCAQYw
DwYDVR0TAQH/BAUwAwEB/zAdBgNVHQ4EFgQUdjNt3eZVsaWOQ38A6go3Q5PS2z4w
HwYDVR0jBBgwFoAUdjNt3eZVsaWOQ38A6go3Q5PS2z4wDQYJKoZIhvcNAQELBQAD
ggIBAAJ9ok6zQ/wIRv9pis6BbW8VE1Yqt6bWpwCHB7EjHl8vzA8dS2deuosc3wHi
fMMQIQpd9utZA5bCj40hOgdmF0rmcOIGMKKCcWPRr3hgaPViOeAVDNKzKGGPD9Zh
CYU32i1AeVIDMZV90qkd8XyeMD0DzyXSJC/pip3EBOmS25bdQtFeG8p6HHnb3AZ4
LRrY3UdSZUrHtL4atqI/RvmL4bx5MG/T7H2Tisnqp0EpP6KHvpYh6i/oBFDMvtFg
VP1r9ret/LT6G4p3St+Hu2CiWdHfirhTQQvqiFiETx4TDsPRdIJhOIOcipf9qSpl
jHVpbklcju0kvp1/0CTZ0STRzUXdCTs1PEp76A6afaQgFE6pbU1qso8TnWJaob+5
X35isPzg+/09+cqYQ5esKiQmVi79y7kxFloD6JPjqq+f2H9yh4JEUc85AjRAbEe3
MaskxqKfrAqgkoa+glf29rUoZw1bPjRDzXT28yv6UpUKJ66IiedxVmqWlUwB4TN3
iJHkLAveP6G2wFIxrO2vcowc2rtk7/0yc4ZEphTknND3p8SkvJ78pwqViYyGxhhi
LnHYgwQ2b6faSqU/O8pL80CTX4lyWZrSdl8HIURtSMJgCUQaVl8klsXbKhM2Jbwf
Dx/CDhs2Q1kSHk0Fy9FL54pjOYtOZa2UDlCpd64C1xlUC7aT
-----END CERTIFICATE-----
