Certificate:
    Data:
        Version: 3 (0x2)
        Serial Number: 1 (0x1)
        Signature Algorithm: sha256WithRSAEncryption
        Issuer: DC=local, DC=scada, O=SCADA, OU=Signing CA, CN=Signing CA
        Validity
            Not Before: Nov 25 14:36:51 2022 GMT
            Not After : Nov 24 14:36:51 2024 GMT
        Subject: DC=local, DC=scada, DC=scada, O=SCADA, OU=webapp, CN=webapp
        Subject Public Key Info:
            Public Key Algorithm: rsaEncryption
                Public-Key: (4096 bit)
                Modulus:
                    00:b8:79:e1:cc:45:22:7f:fa:4a:d2:e5:ed:c5:f4:
                    98:2d:c7:39:a8:bc:ea:d4:9f:f2:23:f1:48:11:ba:
                    38:a7:08:f0:6f:f5:cf:11:f0:16:a1:09:d2:bd:d1:
                    00:cc:52:29:de:01:bf:87:ad:19:5a:c5:e3:5d:69:
                    80:40:b2:83:30:bf:e8:89:df:e5:97:8f:71:a4:84:
                    b7:81:ad:4d:12:18:3c:8e:e5:54:39:a5:f7:25:e5:
                    10:fe:44:56:63:e4:5a:1e:ef:10:3c:f5:ee:fb:c5:
                    b6:36:bf:16:e6:3d:6f:0c:46:0b:33:56:e7:d7:b6:
                    48:5d:2d:d1:e5:59:e9:f2:97:d7:50:bc:e0:49:78:
                    b3:a5:ba:71:e6:bc:a7:46:c0:c7:5e:c3:7d:4f:b8:
                    27:13:48:db:e8:49:a1:2e:78:04:cd:30:28:d4:98:
                    7f:ce:2b:1d:73:e0:90:31:ed:ab:02:99:e3:7d:c6:
                    90:44:70:87:72:1c:97:30:97:00:28:2c:4f:51:30:
                    07:99:0c:e7:00:7c:cf:aa:01:aa:f8:df:1a:dc:6a:
                    44:f0:09:29:5a:b6:40:f9:3a:e3:e9:83:c3:9b:46:
                    e9:92:8d:08:36:96:1a:82:df:ee:5e:c4:5b:9a:14:
                    d2:10:22:38:7d:e4:7b:bd:cd:ca:7b:1d:86:15:da:
                    a8:60:8e:09:00:dd:c2:96:57:84:cc:92:32:e9:13:
                    a5:08:e5:0d:be:8a:bb:00:7b:49:94:68:b3:b0:c9:
                    a3:e0:82:62:ed:46:5f:11:b8:e8:b9:b3:58:4b:37:
                    cc:3c:be:40:c9:d7:dc:7a:08:c2:ff:16:c6:43:c2:
                    ce:c8:8d:ad:c5:7f:37:3d:12:8f:04:1e:63:2e:29:
                    f2:86:38:45:24:c7:d4:f3:99:ca:20:a6:27:51:f4:
                    f5:3e:b2:56:1e:46:f4:1a:45:f1:7c:af:23:2f:d8:
                    cb:26:c2:0f:c5:f6:b4:18:0f:3d:0d:e5:20:1b:25:
                    ff:ed:a8:a9:3c:54:d8:90:f5:f1:85:4f:da:35:0a:
                    89:50:08:c8:3e:a3:73:01:0f:29:0b:d7:0d:38:26:
                    41:ee:04:74:be:3d:03:da:49:1f:c1:d6:ff:8c:ae:
                    12:a3:c2:34:23:5d:46:3c:37:5a:b9:c8:2d:eb:be:
                    ad:96:c3:87:7f:90:bb:85:ba:70:f6:3e:e4:85:eb:
                    7f:30:83:0f:87:7e:90:a5:58:0c:64:79:c8:59:65:
                    70:b1:e7:82:e4:d2:e1:c5:8e:45:97:c7:7b:d1:be:
                    f1:dc:8e:dc:fc:ee:8a:d1:53:dc:ce:e5:d6:ac:d9:
                    0b:f1:8c:e5:1c:76:c7:86:2c:7f:64:7d:30:2f:81:
                    86:3d:19
                Exponent: 65537 (0x10001)
        X509v3 extensions:
            X509v3 Key Usage: critical
                Digital Signature, Key Encipherment
            X509v3 Basic Constraints: 
                CA:FALSE
            X509v3 Extended Key Usage: 
                TLS Web Server Authentication, TLS Web Client Authentication
            X509v3 Subject Key Identifier: 
                6D:9D:35:C3:61:31:4F:6E:41:2A:C5:60:04:39:65:25:42:CB:D6:BB
            X509v3 Authority Key Identifier: 
                DA:C2:2E:DA:A3:40:56:EA:87:D3:8B:85:8E:B9:26:5C:C8:4D:80:8D
            X509v3 Subject Alternative Name: 
                DNS:scada.local
    Signature Algorithm: sha256WithRSAEncryption
    Signature Value:
        a1:a2:5f:10:9e:98:3f:ef:ce:2d:ea:f1:c9:cf:e1:53:8a:13:
        4e:0b:65:9c:02:62:9d:10:17:46:2c:4b:3b:e1:b0:da:2b:5f:
        58:e3:20:ef:95:91:0a:32:0a:5e:49:11:ce:20:7a:10:ed:38:
        4a:21:b3:b6:8c:48:ce:1f:07:c6:61:36:61:68:cf:26:09:9e:
        a8:30:ee:69:e1:47:3a:b0:7b:6e:42:4d:12:e5:ce:89:2c:44:
        37:cd:de:8a:33:53:e1:23:09:65:d2:a7:e2:77:9e:6a:e7:d4:
        f2:54:67:17:7b:80:01:92:19:9b:f3:fb:d0:4e:6d:c2:74:8f:
        bb:92:36:eb:69:2a:db:27:7d:b3:12:2d:27:92:0f:0e:95:32:
        9e:18:68:00:31:b4:59:24:13:be:46:b3:2e:5b:1a:8b:70:1b:
        c5:e3:1c:47:ee:06:c5:ff:90:15:1d:13:7b:a9:f4:0a:96:ac:
        11:41:ab:11:07:01:e5:e1:af:6b:84:53:c7:15:1f:a4:c9:cd:
        75:24:93:33:48:01:cc:e4:52:ba:79:d3:08:34:92:9d:17:40:
        8d:85:b8:85:23:a0:5f:8d:b1:04:34:dd:0e:79:bf:f5:70:96:
        6c:3f:91:44:90:1b:71:0d:09:1d:7d:ab:04:1d:00:87:e4:e3:
        a7:84:88:73:8d:49:f5:e4:ad:24:da:9e:2d:64:ee:2c:01:4b:
        87:5e:5d:c8:c6:84:bf:f7:dd:52:84:67:cc:6f:ea:62:40:3f:
        fe:75:32:a4:54:cc:74:a6:d8:4c:31:19:ab:73:2f:3d:f8:09:
        f6:db:3a:d9:4b:46:4c:a4:bd:0b:29:3a:7d:c0:3c:22:4d:c9:
        5f:61:d3:6d:ee:f8:e0:94:74:db:e2:e0:97:fb:97:b6:90:d7:
        dc:90:6d:61:e5:d9:7c:46:61:2c:7f:e3:6f:b4:d6:c8:5b:25:
        88:56:3b:77:7f:1c:f8:88:53:73:96:b2:7d:33:b6:05:f4:a2:
        d2:a7:c7:9f:c6:1c:fe:1c:96:80:70:8a:5b:5e:70:c8:1d:89:
        a2:96:07:67:31:9e:5f:04:42:c1:c3:31:48:6e:fe:dc:d7:27:
        2b:e6:dd:d5:a6:11:c2:ff:7e:ec:17:7a:2c:a1:e6:15:82:a6:
        47:47:dd:f3:73:41:d6:e1:c1:69:2e:b9:62:87:7e:a9:4a:da:
        51:a1:3a:db:ec:4a:0a:2a:8b:1e:fb:28:b8:d5:e3:ee:bd:e8:
        77:66:4c:bb:81:2b:13:a4:a2:d2:2a:d2:ae:fa:bf:4d:22:0f:
        07:b8:7e:cd:e6:16:15:07:3d:d7:a2:12:56:91:97:e1:73:61:
        f7:e1:07:bf:b1:40:c4:c3
-----BEGIN CERTIFICATE-----
MIIF8DCCA9igAwIBAgIBATANBgkqhkiG9w0BAQsFADBoMRUwEwYKCZImiZPyLGQB
GRYFbG9jYWwxFTATBgoJkiaJk/IsZAEZFgVzY2FkYTEOMAwGA1UECgwFU0NBREEx
EzARBgNVBAsMClNpZ25pbmcgQ0ExEzARBgNVBAMMClNpZ25pbmcgQ0EwHhcNMjIx
MTI1MTQzNjUxWhcNMjQxMTI0MTQzNjUxWjB3MRUwEwYKCZImiZPyLGQBGRYFbG9j
YWwxFTATBgoJkiaJk/IsZAEZFgVzY2FkYTEVMBMGCgmSJomT8ixkARkWBXNjYWRh
MQ4wDAYDVQQKDAVTQ0FEQTEPMA0GA1UECwwGd2ViYXBwMQ8wDQYDVQQDDAZ3ZWJh
cHAwggIiMA0GCSqGSIb3DQEBAQUAA4ICDwAwggIKAoICAQC4eeHMRSJ/+krS5e3F
9JgtxzmovOrUn/Ij8UgRujinCPBv9c8R8BahCdK90QDMUineAb+HrRlaxeNdaYBA
soMwv+iJ3+WXj3GkhLeBrU0SGDyO5VQ5pfcl5RD+RFZj5Foe7xA89e77xbY2vxbm
PW8MRgszVufXtkhdLdHlWenyl9dQvOBJeLOlunHmvKdGwMdew31PuCcTSNvoSaEu
eATNMCjUmH/OKx1z4JAx7asCmeN9xpBEcIdyHJcwlwAoLE9RMAeZDOcAfM+qAar4
3xrcakTwCSlatkD5OuPpg8ObRumSjQg2lhqC3+5exFuaFNIQIjh95Hu9zcp7HYYV
2qhgjgkA3cKWV4TMkjLpE6UI5Q2+irsAe0mUaLOwyaPggmLtRl8RuOi5s1hLN8w8
vkDJ19x6CML/FsZDws7Ija3Ffzc9Eo8EHmMuKfKGOEUkx9TzmcogpidR9PU+slYe
RvQaRfF8ryMv2Msmwg/F9rQYDz0N5SAbJf/tqKk8VNiQ9fGFT9o1ColQCMg+o3MB
DykL1w04JkHuBHS+PQPaSR/B1v+MrhKjwjQjXUY8N1q5yC3rvq2Ww4d/kLuFunD2
PuSF638wgw+HfpClWAxkechZZXCx54Lk0uHFjkWXx3vRvvHcjtz87orRU9zO5das
2QvxjOUcdseGLH9kfTAvgYY9GQIDAQABo4GVMIGSMA4GA1UdDwEB/wQEAwIFoDAJ
BgNVHRMEAjAAMB0GA1UdJQQWMBQGCCsGAQUFBwMBBggrBgEFBQcDAjAdBgNVHQ4E
FgQUbZ01w2ExT25BKsVgBDllJULL1rswHwYDVR0jBBgwFoAU2sIu2qNAVuqH04uF
jrkmXMhNgI0wFgYDVR0RBA8wDYILc2NhZGEubG9jYWwwDQYJKoZIhvcNAQELBQAD
ggIBAKGiXxCemD/vzi3q8cnP4VOKE04LZZwCYp0QF0YsSzvhsNorX1jjIO+VkQoy
Cl5JEc4gehDtOEohs7aMSM4fB8ZhNmFozyYJnqgw7mnhRzqwe25CTRLlzoksRDfN
3oozU+EjCWXSp+J3nmrn1PJUZxd7gAGSGZvz+9BObcJ0j7uSNutpKtsnfbMSLSeS
Dw6VMp4YaAAxtFkkE75Gsy5bGotwG8XjHEfuBsX/kBUdE3up9AqWrBFBqxEHAeXh
r2uEU8cVH6TJzXUkkzNIAczkUrp50wg0kp0XQI2FuIUjoF+NsQQ03Q55v/Vwlmw/
kUSQG3ENCR19qwQdAIfk46eEiHONSfXkrSTani1k7iwBS4deXcjGhL/33VKEZ8xv
6mJAP/51MqRUzHSm2EwxGatzLz34CfbbOtlLRkykvQspOn3APCJNyV9h023u+OCU
dNvi4Jf7l7aQ19yQbWHl2XxGYSx/42+01shbJYhWO3d/HPiIU3OWsn0ztgX0otKn
x5/GHP4cloBwiltecMgdiaKWB2cxnl8EQsHDMUhu/tzXJyvm3dWmEcL/fuwXeiyh
5hWCpkdH3fNzQdbhwWkuuWKHfqlK2lGhOtvsSgoqix77KLjV4+696HdmTLuBKxOk
otIq0q76v00iDwe4fs3mFhUHPdeiElaRl+FzYffhB7+xQMTD
-----END CERTIFICATE-----
