Certificate:
    Data:
        Version: 3 (0x2)
        Serial Number: 7 (0x7)
        Signature Algorithm: sha256WithRSAEncryption
        Issuer: C=US, O=SCADA, OU=Component CA, CN=Component CA
        Validity
            Not Before: Dec  5 20:12:42 2022 GMT
            Not After : Dec  4 20:12:42 2024 GMT
        Subject: C=US, ST=NC, L=Raleigh, O=SCADA, OU=SCADA_CERT, CN=cert.scada.local
        Subject Public Key Info:
            Public Key Algorithm: rsaEncryption
                Public-Key: (4096 bit)
                Modulus:
                    00:c1:72:93:75:3a:b5:b7:60:76:e5:91:34:46:1b:
                    9e:e6:d7:aa:02:d1:65:cd:fc:3f:d8:07:b1:a0:d8:
                    af:2a:4f:8c:78:ab:0d:f4:a1:28:5d:4c:e1:6f:bb:
                    69:54:a0:b1:dc:4c:ad:39:a9:3e:c6:02:e0:ec:35:
                    93:f9:2f:06:44:39:c9:f2:4b:41:16:4e:1e:9f:30:
                    f9:59:1b:a1:67:11:6c:fc:08:fb:96:12:16:5e:3b:
                    14:2e:9f:1f:32:53:50:cb:9a:ae:0b:0c:e1:17:67:
                    f5:c8:b7:3e:58:91:ab:58:60:05:96:79:65:db:79:
                    e6:cd:34:f3:35:f4:f9:4f:47:d6:08:1f:9c:d5:f5:
                    19:d9:f8:4d:08:fd:ee:9c:1d:f7:08:ff:d2:ab:47:
                    2e:6e:3c:ef:5a:33:28:f5:ef:da:48:58:90:18:46:
                    ce:1a:a4:48:aa:6a:85:98:56:be:e2:f6:47:a7:22:
                    8c:9f:52:8a:c0:c0:97:3d:c1:90:a8:94:79:68:5a:
                    62:d3:bb:64:08:9f:8a:05:7c:28:20:5d:b6:95:ba:
                    49:d4:fc:3e:b9:f0:89:fd:e6:a2:f2:16:df:bd:77:
                    06:d5:3a:22:13:84:70:e6:fa:e0:57:b3:26:17:bc:
                    cd:37:e0:6b:a7:c2:f5:af:c7:05:c0:9d:5f:ab:4f:
                    3d:92:ec:c0:31:ba:53:02:9a:08:b6:6e:38:f9:01:
                    60:7f:52:1b:26:55:ed:f3:4d:ec:00:fd:13:f0:bb:
                    94:eb:12:54:91:04:a0:e0:46:e4:70:ab:b6:c5:ea:
                    16:8d:a3:e5:f0:f2:64:a9:66:d2:03:9f:b2:bf:d6:
                    d0:37:b1:57:dc:05:e8:86:ec:1b:92:4b:9f:68:0f:
                    9e:2d:24:94:2b:8e:7a:e7:16:3a:65:04:e6:d1:e2:
                    87:84:07:cd:e4:d0:d3:1b:4f:d6:96:cc:dc:e1:bd:
                    10:93:ed:55:51:fd:80:61:97:fe:99:89:26:cb:79:
                    b1:c6:c4:f8:7f:8e:a9:9f:b9:c2:a8:4f:9a:65:51:
                    89:8e:6a:e7:e1:81:7c:a9:dc:b8:49:6f:40:82:b9:
                    37:b3:dd:39:f2:6c:5e:4c:ba:45:52:f3:c0:f3:81:
                    0d:b2:09:2b:de:ab:a3:8c:db:a9:11:03:e9:e2:fa:
                    b1:f2:2b:94:88:2c:44:5d:a6:d4:8b:6a:40:a5:45:
                    50:9d:63:fe:71:21:8c:63:fa:43:91:67:92:15:6a:
                    3d:09:26:72:18:0b:77:45:3a:b9:fc:8f:60:e0:fa:
                    fa:4e:01:15:25:95:33:7c:20:72:a0:04:91:04:00:
                    9a:f1:5b:a2:b9:7d:8c:bd:f8:03:3d:41:a3:ce:92:
                    fc:a9:15
                Exponent: 65537 (0x10001)
        X509v3 extensions:
            X509v3 Key Usage: critical
                Digital Signature
            X509v3 Basic Constraints: 
                CA:FALSE
            X509v3 Extended Key Usage: 
                TLS Web Client Authentication
            X509v3 Subject Key Identifier: 
                18:EF:CE:D0:0C:84:BE:22:58:07:5E:37:05:AB:BA:37:71:10:E0:C9
            X509v3 Authority Key Identifier: 
                8A:EC:AB:95:84:4F:E3:07:75:86:68:CC:59:B9:2B:FF:A8:14:5D:E3
            Authority Information Access: 
                CA Issuers - URI:http://pki.scada.local/component-ca.cer
            X509v3 CRL Distribution Points: 
                Full Name:
                  URI:http://pki.scada.local/component-ca.crl
            X509v3 Certificate Policies: 
                Policy: Blue Medium Device Assurance
    Signature Algorithm: sha256WithRSAEncryption
    Signature Value:
        1c:a7:ff:a1:39:83:e7:0e:53:94:53:68:19:9c:93:e6:03:e7:
        5a:41:1e:58:83:08:6f:87:ff:80:8e:48:db:f1:ac:13:8f:de:
        1e:15:21:03:14:1c:a0:ab:5f:3b:e3:d1:92:6a:29:32:92:ca:
        66:30:09:b3:4b:4d:79:d9:83:90:e5:7c:13:a3:85:58:52:64:
        e2:0d:65:a7:ef:1f:68:b3:7c:4f:5b:52:c7:93:d8:c2:54:60:
        f5:27:dc:e5:00:cf:c7:50:4e:73:48:0c:ab:d6:67:88:a7:cd:
        6d:d4:7d:75:41:58:a1:ec:ee:5f:e1:8b:dd:15:15:96:fe:9a:
        78:e3:a5:f3:d7:d9:02:86:97:05:99:01:94:01:ee:77:4b:5c:
        a4:e3:2d:71:47:2d:c2:b2:33:3a:94:e7:35:7e:5d:27:55:44:
        23:76:63:8b:e4:c6:f4:da:aa:4b:40:b1:f5:76:64:93:bf:96:
        21:17:eb:95:67:70:70:87:e3:a5:94:3d:7a:44:dd:8f:61:4b:
        ec:02:79:96:e4:e7:4a:73:08:f5:d6:76:9f:8f:d2:92:56:d9:
        af:86:68:86:08:9d:01:94:e7:4e:7d:3b:c4:43:28:3a:89:e5:
        12:c8:f5:66:f9:5f:29:35:74:54:a7:0d:ca:98:fc:0f:ed:dd:
        33:f5:7f:91:e4:14:d2:88:7b:08:87:12:03:fe:f8:d6:f8:99:
        82:26:20:67:e4:97:c8:24:a7:81:2c:53:f3:e4:f8:16:7f:7a:
        93:bc:38:09:02:3e:d6:69:61:d5:06:bd:76:2c:c2:38:dc:4d:
        3d:9c:5f:ed:ab:f7:12:1b:99:7f:19:40:3e:4b:94:fd:dd:9c:
        ea:53:80:67:98:61:4b:85:df:cd:98:32:ef:50:d4:6c:fc:da:
        4b:ea:78:02:6a:0f:ab:fb:d2:fb:be:12:45:bd:40:71:db:46:
        8f:4f:59:5a:ce:de:54:3b:91:4f:2b:8e:75:4d:31:5c:07:5e:
        b3:64:f5:35:0d:27:b7:5b:eb:b6:a3:5d:6e:cf:82:c1:35:da:
        38:fa:fb:87:43:18:fd:d2:8b:4e:0f:2f:fe:8e:0c:2d:67:53:
        c0:e9:f3:fe:28:47:0b:c2:8f:47:ce:70:3e:86:1e:a6:5e:db:
        ec:5f:e5:d0:01:f9:fe:0d:d8:ff:d7:fb:c0:18:e3:75:a3:dd:
        a0:e8:9b:d3:96:d7:4d:f2:04:83:fa:15:c9:f6:a7:22:3b:a5:
        ae:7d:a4:6e:96:48:3b:c7:a7:fe:24:1d:d4:45:4f:59:73:52:
        a7:42:7d:13:95:1a:63:60:ae:52:bd:42:ee:a4:41:86:12:79:
        b6:51:86:14:2e:ee:cd:22
-----BEGIN CERTIFICATE-----
MIIGPzCCBCegAwIBAgIBBzANBgkqhkiG9w0BAQsFADBLMQswCQYDVQQGEwJVUzEO
MAwGA1UECgwFU0NBREExFTATBgNVBAsMDENvbXBvbmVudCBDQTEVMBMGA1UEAwwM
Q29tcG9uZW50IENBMB4XDTIyMTIwNTIwMTI0MloXDTI0MTIwNDIwMTI0MlowbDEL
MAkGA1UEBhMCVVMxCzAJBgNVBAgMAk5DMRAwDgYDVQQHDAdSYWxlaWdoMQ4wDAYD
VQQKDAVTQ0FEQTETMBEGA1UECwwKU0NBREFfQ0VSVDEZMBcGA1UEAwwQY2VydC5z
Y2FkYS5sb2NhbDCCAiIwDQYJKoZIhvcNAQEBBQADggIPADCCAgoCggIBAMFyk3U6
tbdgduWRNEYbnubXqgLRZc38P9gHsaDYrypPjHirDfShKF1M4W+7aVSgsdxMrTmp
PsYC4Ow1k/kvBkQ5yfJLQRZOHp8w+VkboWcRbPwI+5YSFl47FC6fHzJTUMuargsM
4Rdn9ci3PliRq1hgBZZ5Zdt55s008zX0+U9H1ggfnNX1Gdn4TQj97pwd9wj/0qtH
Lm4871ozKPXv2khYkBhGzhqkSKpqhZhWvuL2R6cijJ9SisDAlz3BkKiUeWhaYtO7
ZAifigV8KCBdtpW6SdT8Prnwif3movIW3713BtU6IhOEcOb64FezJhe8zTfga6fC
9a/HBcCdX6tPPZLswDG6UwKaCLZuOPkBYH9SGyZV7fNN7AD9E/C7lOsSVJEEoOBG
5HCrtsXqFo2j5fDyZKlm0gOfsr/W0DexV9wF6IbsG5JLn2gPni0klCuOeucWOmUE
5tHih4QHzeTQ0xtP1pbM3OG9EJPtVVH9gGGX/pmJJst5scbE+H+OqZ+5wqhPmmVR
iY5q5+GBfKncuElvQIK5N7PdOfJsXky6RVLzwPOBDbIJK96ro4zbqRED6eL6sfIr
lIgsRF2m1ItqQKVFUJ1j/nEhjGP6Q5FnkhVqPQkmchgLd0U6ufyPYOD6+k4BFSWV
M3wgcqAEkQQAmvFborl9jL34Az1Bo86S/KkVAgMBAAGjggELMIIBBzAOBgNVHQ8B
Af8EBAMCB4AwCQYDVR0TBAIwADATBgNVHSUEDDAKBggrBgEFBQcDAjAdBgNVHQ4E
FgQUGO/O0AyEviJYB143Bau6N3EQ4MkwHwYDVR0jBBgwFoAUiuyrlYRP4wd1hmjM
Wbkr/6gUXeMwQwYIKwYBBQUHAQEENzA1MDMGCCsGAQUFBzAChidodHRwOi8vcGtp
LnNjYWRhLmxvY2FsL2NvbXBvbmVudC1jYS5jZXIwOAYDVR0fBDEwLzAtoCugKYYn
aHR0cDovL3BraS5zY2FkYS5sb2NhbC9jb21wb25lbnQtY2EuY3JsMBYGA1UdIAQP
MA0wCwYJKwYBBAEAAQcJMA0GCSqGSIb3DQEBCwUAA4ICAQAcp/+hOYPnDlOUU2gZ
nJPmA+daQR5Ygwhvh/+Ajkjb8awTj94eFSEDFBygq18749GSaikykspmMAmzS015
2YOQ5XwTo4VYUmTiDWWn7x9os3xPW1LHk9jCVGD1J9zlAM/HUE5zSAyr1meIp81t
1H11QVih7O5f4YvdFRWW/pp446Xz19kChpcFmQGUAe53S1yk4y1xRy3CsjM6lOc1
fl0nVUQjdmOL5Mb02qpLQLH1dmSTv5YhF+uVZ3Bwh+OllD16RN2PYUvsAnmW5OdK
cwj11nafj9KSVtmvhmiGCJ0BlOdOfTvEQyg6ieUSyPVm+V8pNXRUpw3KmPwP7d0z
9X+R5BTSiHsIhxID/vjW+JmCJiBn5JfIJKeBLFPz5PgWf3qTvDgJAj7WaWHVBr12
LMI43E09nF/tq/cSG5l/GUA+S5T93ZzqU4BnmGFLhd/NmDLvUNRs/NpL6ngCag+r
+9L7vhJFvUBx20aPT1lazt5UO5FPK451TTFcB16zZPU1DSe3W+u2o11uz4LBNdo4
+vuHQxj90otODy/+jgwtZ1PA6fP+KEcLwo9HznA+hh6mXtvsX+XQAfn+Ddj/1/vA
GON1o92g6JvTltdN8gSD+hXJ9qciO6WufaRulkg7x6f+JB3URU9Zc1KnQn0TlRpj
YK5SvULupEGGEnm2UYYULu7NIg==
-----END CERTIFICATE-----
