Certificate:
    Data:
        Version: 3 (0x2)
        Serial Number: 2 (0x2)
        Signature Algorithm: sha256WithRSAEncryption
        Issuer: C=US, O=SCADA, OU=Component CA, CN=Component CA
        Validity
            Not Before: Dec  3 19:21:00 2022 GMT
            Not After : Dec  2 19:21:00 2024 GMT
        Subject: C=US, ST=NC, L=Raleigh, O=SCADA, OU=SCADA_CERT, CN=cert.scada.local
        Subject Public Key Info:
            Public Key Algorithm: rsaEncryption
                Public-Key: (2048 bit)
                Modulus:
                    00:9a:d2:61:e9:e8:eb:61:31:67:11:4a:a3:60:a0:
                    90:d1:7b:9e:b9:b6:12:df:09:e5:8e:ab:b9:13:4d:
                    73:34:83:dd:d3:82:1f:70:2a:ce:0f:7d:22:46:00:
                    f9:a5:66:2f:58:23:7f:b9:3c:ad:25:a3:1c:63:c6:
                    36:09:a3:3b:d7:be:fd:88:b7:a1:c7:ba:14:d5:cd:
                    65:af:9c:cd:2c:32:85:48:25:17:4c:6d:fb:9d:20:
                    3c:a0:a8:9d:26:e9:b1:09:b0:44:c2:c9:a2:b2:de:
                    6c:df:7a:b3:e9:9e:df:79:94:d4:da:0f:40:a0:84:
                    bf:7f:db:9a:d7:ff:14:fe:80:b1:17:a5:8d:4d:a6:
                    8d:7a:70:56:76:f2:99:3c:0c:52:0a:c2:52:b0:20:
                    07:b0:88:8b:86:5f:cc:2b:0d:5b:ed:00:72:c6:5c:
                    0c:8c:73:04:e1:04:3a:79:19:31:7c:14:ea:f9:67:
                    d6:5f:ff:b5:df:3c:d8:a2:55:59:75:c7:a5:67:98:
                    15:3e:05:03:bb:f2:be:c0:36:2c:96:7d:97:fd:16:
                    6b:e7:ca:76:eb:86:02:28:12:77:e9:30:bd:59:2b:
                    5c:a2:b7:d8:19:2d:a4:e3:66:04:17:e8:16:55:a0:
                    21:98:be:03:81:e0:ee:23:43:f7:e9:22:cd:b0:13:
                    e4:87
                Exponent: 65537 (0x10001)
        X509v3 extensions:
            X509v3 Key Usage: critical
                Digital Signature, Key Encipherment
            X509v3 Basic Constraints: 
                CA:FALSE
            X509v3 Extended Key Usage: 
                TLS Web Server Authentication, TLS Web Client Authentication
            X509v3 Subject Key Identifier: 
                E2:05:B1:F5:34:F5:95:7A:8A:12:61:E5:C8:04:92:27:BE:C8:1E:53
            X509v3 Authority Key Identifier: 
                8A:EC:AB:95:84:4F:E3:07:75:86:68:CC:59:B9:2B:FF:A8:14:5D:E3
            Authority Information Access: 
                CA Issuers - URI:http://pki.scada.local/component-ca.cer
            X509v3 CRL Distribution Points: 
                Full Name:
                  URI:http://pki.scada.local/component-ca.crl
            X509v3 Certificate Policies: 
                Policy: Blue Medium Device Assurance
            X509v3 Subject Alternative Name: 
                DNS:webapp.scada.local
    Signature Algorithm: sha256WithRSAEncryption
    Signature Value:
        54:57:40:b5:bf:d6:41:82:e2:21:9e:86:53:11:7a:a9:40:1c:
        37:7c:69:75:46:da:d1:7a:2c:ae:d4:31:71:56:9a:80:5e:8c:
        f9:ef:a6:c4:cb:56:cf:1e:3e:e4:c9:69:2f:15:e9:0e:be:07:
        fd:5d:8e:27:09:12:08:98:ba:da:67:97:04:b4:3a:e4:46:1d:
        fa:ed:f3:62:7c:83:d7:ec:03:f5:a3:a7:52:a1:1d:e4:dc:62:
        38:ad:de:a1:e4:7e:c0:11:f4:48:9b:d9:d2:5d:f2:95:f7:2c:
        8c:ad:f9:9f:7e:44:1f:5b:fc:4c:0b:7a:69:ca:59:d8:b2:7a:
        bf:53:21:31:7c:23:bf:e8:ad:d3:05:e8:6f:ea:e5:f0:5f:f4:
        43:3c:b5:c6:46:f7:02:86:33:bd:1d:56:ec:56:2c:22:6e:f3:
        05:9c:21:b6:8c:79:16:c1:85:a4:da:75:87:b9:ea:ec:5f:3d:
        25:6a:61:3b:b0:36:8a:8a:d2:aa:fa:39:4c:72:49:cd:d8:c9:
        9d:fc:d8:3b:c2:6c:9d:21:b5:47:99:4b:e0:3e:20:cc:2a:5d:
        95:4c:76:bf:34:aa:b7:39:b1:fc:fc:cb:87:16:c5:36:77:c0:
        65:51:77:9a:17:b6:4f:08:77:15:6c:d9:72:03:32:56:e0:82:
        30:f0:38:de:ff:f7:35:fe:8f:82:c0:60:03:6f:d4:00:4b:19:
        f2:79:08:b9:0b:c3:be:50:74:2f:7c:7c:8b:f6:d5:2d:cb:21:
        69:b9:5a:fa:cd:1e:c4:4f:0a:51:dc:9b:22:8a:89:5e:fa:5d:
        dc:28:62:2e:21:53:1f:1a:d1:8d:9d:7d:2c:59:08:66:75:54:
        b2:a1:43:af:87:99:c3:7f:12:62:3a:ad:96:34:48:b9:37:d2:
        9e:2a:00:67:a7:a2:b7:57:91:27:fb:82:c8:bd:7b:82:a8:7c:
        1b:74:cd:b2:fe:79:e2:86:44:fb:b9:55:d6:40:6d:9c:3d:23:
        1b:05:80:97:f7:22:6c:6a:b2:17:9e:a8:1e:00:0b:ba:b8:1c:
        c5:a2:b5:52:02:42:95:f9:5a:ab:9d:be:f5:f4:ac:e2:81:68:
        69:7d:66:b3:fd:e4:cd:68:ce:12:ba:1e:8d:aa:b2:3e:90:7a:
        b2:80:96:16:2c:92:cc:08:6c:fb:59:3e:18:2c:6b:c0:d8:e3:
        ae:78:22:ad:ac:e8:db:9c:5c:e0:b4:89:32:db:46:f3:e1:ec:
        b8:45:00:24:54:9e:5a:b6:60:9f:f6:ae:70:27:eb:6a:80:9c:
        24:1a:b3:89:cb:1d:ca:c5:32:ae:0b:b2:39:a0:b6:62:f0:e7:
        1b:f9:68:21:0c:49:d4:bd
-----BEGIN CERTIFICATE-----
MIIFaDCCA1CgAwIBAgIBAjANBgkqhkiG9w0BAQsFADBLMQswCQYDVQQGEwJVUzEO
MAwGA1UECgwFU0NBREExFTATBgNVBAsMDENvbXBvbmVudCBDQTEVMBMGA1UEAwwM
Q29tcG9uZW50IENBMB4XDTIyMTIwMzE5MjEwMFoXDTI0MTIwMjE5MjEwMFowbDEL
MAkGA1UEBhMCVVMxCzAJBgNVBAgMAk5DMRAwDgYDVQQHDAdSYWxlaWdoMQ4wDAYD
VQQKDAVTQ0FEQTETMBEGA1UECwwKU0NBREFfQ0VSVDEZMBcGA1UEAwwQY2VydC5z
Y2FkYS5sb2NhbDCCASIwDQYJKoZIhvcNAQEBBQADggEPADCCAQoCggEBAJrSYeno
62ExZxFKo2CgkNF7nrm2Et8J5Y6ruRNNczSD3dOCH3Aqzg99IkYA+aVmL1gjf7k8
rSWjHGPGNgmjO9e+/Yi3oce6FNXNZa+czSwyhUglF0xt+50gPKConSbpsQmwRMLJ
orLebN96s+me33mU1NoPQKCEv3/bmtf/FP6AsReljU2mjXpwVnbymTwMUgrCUrAg
B7CIi4ZfzCsNW+0AcsZcDIxzBOEEOnkZMXwU6vln1l//td882KJVWXXHpWeYFT4F
A7vyvsA2LJZ9l/0Wa+fKduuGAigSd+kwvVkrXKK32BktpONmBBfoFlWgIZi+A4Hg
7iND9+kizbAT5IcCAwEAAaOCATQwggEwMA4GA1UdDwEB/wQEAwIFoDAJBgNVHRME
AjAAMB0GA1UdJQQWMBQGCCsGAQUFBwMBBggrBgEFBQcDAjAdBgNVHQ4EFgQU4gWx
9TT1lXqKEmHlyASSJ77IHlMwHwYDVR0jBBgwFoAUiuyrlYRP4wd1hmjMWbkr/6gU
XeMwQwYIKwYBBQUHAQEENzA1MDMGCCsGAQUFBzAChidodHRwOi8vcGtpLnNjYWRh
LmxvY2FsL2NvbXBvbmVudC1jYS5jZXIwOAYDVR0fBDEwLzAtoCugKYYnaHR0cDov
L3BraS5zY2FkYS5sb2NhbC9jb21wb25lbnQtY2EuY3JsMBYGA1UdIAQPMA0wCwYJ
KwYBBAEAAQcJMB0GA1UdEQQWMBSCEndlYmFwcC5zY2FkYS5sb2NhbDANBgkqhkiG
9w0BAQsFAAOCAgEAVFdAtb/WQYLiIZ6GUxF6qUAcN3xpdUba0XosrtQxcVaagF6M
+e+mxMtWzx4+5MlpLxXpDr4H/V2OJwkSCJi62meXBLQ65EYd+u3zYnyD1+wD9aOn
UqEd5NxiOK3eoeR+wBH0SJvZ0l3ylfcsjK35n35EH1v8TAt6acpZ2LJ6v1MhMXwj
v+it0wXob+rl8F/0Qzy1xkb3AoYzvR1W7FYsIm7zBZwhtox5FsGFpNp1h7nq7F89
JWphO7A2iorSqvo5THJJzdjJnfzYO8JsnSG1R5lL4D4gzCpdlUx2vzSqtzmx/PzL
hxbFNnfAZVF3mhe2Twh3FWzZcgMyVuCCMPA43v/3Nf6PgsBgA2/UAEsZ8nkIuQvD
vlB0L3x8i/bVLcshabla+s0exE8KUdybIoqJXvpd3ChiLiFTHxrRjZ19LFkIZnVU
sqFDr4eZw38SYjqtljRIuTfSnioAZ6eit1eRJ/uCyL17gqh8G3TNsv554oZE+7lV
1kBtnD0jGwWAl/cibGqyF56oHgALurgcxaK1UgJClflaq52+9fSs4oFoaX1ms/3k
zWjOEroejaqyPpB6soCWFiySzAhs+1k+GCxrwNjjrngirazo25xc4LSJMttG8+Hs
uEUAJFSeWrZgn/aucCfraoCcJBqzicsdysUyrguyOaC2YvDnG/loIQxJ1L0=
-----END CERTIFICATE-----
