Certificate:
    Data:
        Version: 3 (0x2)
        Serial Number: 3 (0x3)
        Signature Algorithm: sha256WithRSAEncryption
        Issuer: C=US, O=SCADA, OU=Component CA, CN=Component CA
        Validity
            Not Before: Dec  3 19:21:01 2022 GMT
            Not After : Dec  2 19:21:01 2024 GMT
        Subject: C=US, ST=NC, L=Raleigh, O=SCADA, OU=SCADA_AUTH, CN=auth.scada.local
        Subject Public Key Info:
            Public Key Algorithm: rsaEncryption
                Public-Key: (2048 bit)
                Modulus:
                    00:8d:d4:ca:13:82:3d:d8:9a:8e:ea:3e:36:14:07:
                    14:8f:38:62:e2:21:e3:1a:d5:85:d8:0d:b9:8e:01:
                    19:6b:a0:81:65:2e:03:b2:f3:3d:65:ae:74:05:6f:
                    6c:0c:42:78:0d:a4:30:c7:98:25:d1:00:7c:2c:3c:
                    2e:2b:a9:62:72:54:5a:d6:aa:f7:21:2b:67:7c:68:
                    4c:05:8b:8e:42:8c:26:ce:c4:60:fc:c1:75:1c:77:
                    27:07:a7:78:5b:2b:31:c2:f3:85:96:84:b9:15:50:
                    af:2b:bc:de:54:27:d1:5a:2b:50:d7:75:f1:2a:49:
                    5f:6d:ba:21:4f:79:a6:0c:55:b1:a7:e9:26:92:0d:
                    dd:12:f9:e0:c6:b1:6d:34:5b:df:c7:55:53:b6:32:
                    c9:a2:03:9f:79:23:25:2c:2b:2e:1d:96:71:16:ac:
                    92:92:30:2b:cf:b4:69:1a:4c:33:cc:18:8f:1c:0a:
                    1d:60:bc:cd:a5:8e:3a:f8:33:e9:c9:71:66:96:57:
                    6e:54:ee:bb:35:09:ff:8a:38:43:08:62:f0:73:73:
                    b9:9e:26:67:0b:a4:a6:96:64:04:a5:4e:5e:9f:33:
                    4d:f5:17:01:06:d0:59:0f:62:41:ae:ae:9a:e7:3a:
                    d2:fb:78:f1:8e:14:fb:f5:d1:34:31:1e:6f:ae:aa:
                    03:39
                Exponent: 65537 (0x10001)
        X509v3 extensions:
            X509v3 Key Usage: critical
                Digital Signature, Key Encipherment
            X509v3 Basic Constraints: 
                CA:FALSE
            X509v3 Extended Key Usage: 
                TLS Web Server Authentication, TLS Web Client Authentication
            X509v3 Subject Key Identifier: 
                28:2F:A6:24:73:3F:CD:A1:65:CD:3A:9C:94:C4:F9:95:06:71:C6:EB
            X509v3 Authority Key Identifier: 
                8A:EC:AB:95:84:4F:E3:07:75:86:68:CC:59:B9:2B:FF:A8:14:5D:E3
            Authority Information Access: 
                CA Issuers - URI:http://pki.scada.local/component-ca.cer
            X509v3 CRL Distribution Points: 
                Full Name:
                  URI:http://pki.scada.local/component-ca.crl
            X509v3 Certificate Policies: 
                Policy: Blue Medium Device Assurance
            X509v3 Subject Alternative Name: 
                DNS:webapp.scada.local
    Signature Algorithm: sha256WithRSAEncryption
    Signature Value:
        28:d3:70:4a:09:6c:7c:1b:bf:7c:ec:a6:45:31:d3:47:95:e3:
        79:eb:b1:ee:4a:ac:9b:1d:0f:40:29:af:98:58:f0:b4:41:34:
        ed:b7:cc:49:41:6c:6b:ef:69:57:cd:c4:11:44:6b:69:7b:eb:
        65:df:2d:78:c6:3c:0b:3f:12:4e:ac:25:7f:bb:85:b9:eb:12:
        4c:b7:2c:da:56:46:2b:d4:26:1e:86:7c:04:26:32:32:8a:62:
        03:f8:58:1d:f1:e2:4d:03:8e:6b:1b:90:96:d7:bc:16:cf:96:
        97:ef:c9:8a:df:db:ab:41:6f:39:93:d9:f2:0a:2e:29:33:6d:
        62:5d:37:0a:6e:f7:e0:be:10:c1:d5:a0:52:f7:d4:be:d0:82:
        2f:72:e0:fe:dd:75:19:2a:77:ab:86:b4:90:be:9b:47:49:42:
        5b:64:ed:be:d9:22:da:fa:71:fd:a8:65:c3:52:f1:05:2f:d6:
        10:f5:12:22:87:e9:e0:80:e9:f2:34:0e:6c:ed:8a:c7:01:a0:
        bb:7f:f9:e2:a7:5a:76:9e:df:00:7e:a1:59:5a:53:21:a0:fa:
        ba:53:54:01:8a:3b:9f:46:1b:fe:d1:3d:57:ab:e3:59:09:86:
        34:69:b3:ae:9d:82:7a:8b:1b:a5:d9:1f:05:95:3b:9c:a2:b7:
        9b:d4:92:1f:f3:f9:05:41:d3:5c:a8:64:1e:4a:31:ab:38:23:
        82:60:69:6a:f9:b2:66:1b:67:b9:c9:28:7b:f3:c0:73:57:6c:
        dc:40:1b:a6:02:d9:8b:6b:e6:4c:bf:8b:28:34:4b:44:72:bf:
        e1:4d:df:28:73:5e:bd:fb:74:57:97:81:b4:5f:d2:c5:c2:fa:
        66:f6:3b:9c:86:4f:00:0d:17:e7:76:f2:a0:9b:c3:25:4f:aa:
        bf:66:72:ab:4f:b0:40:ac:5b:ee:66:56:76:de:d7:ae:e1:e7:
        dd:ba:a1:22:01:d7:12:f2:f1:d0:50:c6:26:26:c8:e9:0e:06:
        34:c9:14:57:a9:fa:f0:a3:81:9d:f5:41:f9:2c:de:10:52:09:
        34:2c:52:4e:d6:14:db:95:c3:48:4a:49:db:3e:72:94:4d:20:
        0c:12:05:7e:c1:7a:e9:d4:1b:f9:95:ea:a6:b7:82:fe:f2:1a:
        bc:2b:ee:80:37:24:70:02:39:9c:8b:01:08:55:d3:4e:d5:78:
        f9:8d:99:36:20:0d:97:00:25:40:9e:2b:ab:aa:15:5c:82:9b:
        d4:49:4a:a8:dc:a9:bd:38:79:0c:77:58:3c:54:78:90:df:63:
        84:84:f2:4e:9b:ac:20:19:c6:b5:a4:07:92:38:f4:8b:76:d9:
        2e:5d:da:e0:a8:8a:7c:06
-----BEGIN CERTIFICATE-----
MIIFaDCCA1CgAwIBAgIBAzANBgkqhkiG9w0BAQsFADBLMQswCQYDVQQGEwJVUzEO
MAwGA1UECgwFU0NBREExFTATBgNVBAsMDENvbXBvbmVudCBDQTEVMBMGA1UEAwwM
Q29tcG9uZW50IENBMB4XDTIyMTIwMzE5MjEwMVoXDTI0MTIwMjE5MjEwMVowbDEL
MAkGA1UEBhMCVVMxCzAJBgNVBAgMAk5DMRAwDgYDVQQHDAdSYWxlaWdoMQ4wDAYD
VQQKDAVTQ0FEQTETMBEGA1UECwwKU0NBREFfQVVUSDEZMBcGA1UEAwwQYXV0aC5z
Y2FkYS5sb2NhbDCCASIwDQYJKoZIhvcNAQEBBQADggEPADCCAQoCggEBAI3UyhOC
Pdiajuo+NhQHFI84YuIh4xrVhdgNuY4BGWuggWUuA7LzPWWudAVvbAxCeA2kMMeY
JdEAfCw8LiupYnJUWtaq9yErZ3xoTAWLjkKMJs7EYPzBdRx3JweneFsrMcLzhZaE
uRVQryu83lQn0VorUNd18SpJX226IU95pgxVsafpJpIN3RL54MaxbTRb38dVU7Yy
yaIDn3kjJSwrLh2WcRaskpIwK8+0aRpMM8wYjxwKHWC8zaWOOvgz6clxZpZXblTu
uzUJ/4o4Qwhi8HNzuZ4mZwukppZkBKVOXp8zTfUXAQbQWQ9iQa6umuc60vt48Y4U
+/XRNDEeb66qAzkCAwEAAaOCATQwggEwMA4GA1UdDwEB/wQEAwIFoDAJBgNVHRME
AjAAMB0GA1UdJQQWMBQGCCsGAQUFBwMBBggrBgEFBQcDAjAdBgNVHQ4EFgQUKC+m
JHM/zaFlzTqclMT5lQZxxuswHwYDVR0jBBgwFoAUiuyrlYRP4wd1hmjMWbkr/6gU
XeMwQwYIKwYBBQUHAQEENzA1MDMGCCsGAQUFBzAChidodHRwOi8vcGtpLnNjYWRh
LmxvY2FsL2NvbXBvbmVudC1jYS5jZXIwOAYDVR0fBDEwLzAtoCugKYYnaHR0cDov
L3BraS5zY2FkYS5sb2NhbC9jb21wb25lbnQtY2EuY3JsMBYGA1UdIAQPMA0wCwYJ
KwYBBAEAAQcJMB0GA1UdEQQWMBSCEndlYmFwcC5zY2FkYS5sb2NhbDANBgkqhkiG
9w0BAQsFAAOCAgEAKNNwSglsfBu/fOymRTHTR5Xjeeux7kqsmx0PQCmvmFjwtEE0
7bfMSUFsa+9pV83EEURraXvrZd8teMY8Cz8STqwlf7uFuesSTLcs2lZGK9QmHoZ8
BCYyMopiA/hYHfHiTQOOaxuQlte8Fs+Wl+/Jit/bq0FvOZPZ8gouKTNtYl03Cm73
4L4QwdWgUvfUvtCCL3Lg/t11GSp3q4a0kL6bR0lCW2Ttvtki2vpx/ahlw1LxBS/W
EPUSIofp4IDp8jQObO2KxwGgu3/54qdadp7fAH6hWVpTIaD6ulNUAYo7n0Yb/tE9
V6vjWQmGNGmzrp2CeosbpdkfBZU7nKK3m9SSH/P5BUHTXKhkHkoxqzgjgmBpavmy
Zhtnuckoe/PAc1ds3EAbpgLZi2vmTL+LKDRLRHK/4U3fKHNevft0V5eBtF/SxcL6
ZvY7nIZPAA0X53byoJvDJU+qv2Zyq0+wQKxb7mZWdt7XruHn3bqhIgHXEvLx0FDG
JibI6Q4GNMkUV6n68KOBnfVB+SzeEFIJNCxSTtYU25XDSEpJ2z5ylE0gDBIFfsF6
6dQb+ZXqpreC/vIavCvugDckcAI5nIsBCFXTTtV4+Y2ZNiANlwAlQJ4rq6oVXIKb
1ElKqNypvTh5DHdYPFR4kN9jhITyTpusIBnGtaQHkjj0i3bZLl3a4KiKfAY=
-----END CERTIFICATE-----
