Certificate:
    Data:
        Version: 3 (0x2)
        Serial Number: 4 (0x4)
        Signature Algorithm: sha256WithRSAEncryption
        Issuer: C=US, O=SCADA, OU=Component CA, CN=Component CA
        Validity
            Not Before: Dec  3 19:21:01 2022 GMT
            Not After : Dec  2 19:21:01 2024 GMT
        Subject: C=US, ST=NC, L=Raleigh, O=SCADA, OU=SCADA_DATA, CN=data.scada.local
        Subject Public Key Info:
            Public Key Algorithm: rsaEncryption
                Public-Key: (2048 bit)
                Modulus:
                    00:ce:7e:7a:08:e7:ab:b4:42:74:66:04:e6:4e:01:
                    ae:8c:90:4a:6f:ac:c9:d2:ef:b1:fa:7c:f6:a5:f9:
                    8f:82:90:77:4e:5b:62:60:3d:a4:28:27:77:b6:82:
                    e8:b2:31:56:4f:a0:4d:0a:ce:92:56:45:15:b1:42:
                    fd:39:09:6d:1a:4c:1a:ba:29:9c:e1:b7:4e:2e:a2:
                    8b:f2:88:06:bf:27:7b:4b:08:31:d5:2b:a2:d1:dc:
                    6e:19:e3:c0:43:d6:fa:41:74:ae:01:af:a3:b6:d6:
                    b6:e8:a9:a4:f5:5a:9a:fc:ee:5d:9f:52:be:65:f1:
                    56:bf:1b:e0:97:c8:2a:cf:71:17:31:f3:b5:f6:81:
                    ca:25:5d:a2:38:3d:3a:41:08:89:d9:23:13:60:5b:
                    e4:fd:a9:de:ae:7e:45:cf:50:ec:6a:62:0c:47:9c:
                    bc:06:e8:f5:ca:5d:4d:b8:c9:3b:2a:9a:b6:cc:63:
                    ce:a0:bb:5f:42:5d:c9:06:a9:ea:02:1f:95:e1:e3:
                    34:36:b3:93:ef:ef:07:be:1b:01:3f:fe:a9:48:30:
                    39:47:d4:4d:61:eb:5b:c4:03:f8:ed:0d:cc:73:9a:
                    23:46:b7:e8:f2:2e:7c:86:38:ed:2c:64:47:bd:1c:
                    92:f1:31:92:cc:a2:3b:d2:80:9f:01:e0:d8:98:21:
                    84:9b
                Exponent: 65537 (0x10001)
        X509v3 extensions:
            X509v3 Key Usage: critical
                Digital Signature, Key Encipherment
            X509v3 Basic Constraints: 
                CA:FALSE
            X509v3 Extended Key Usage: 
                TLS Web Server Authentication, TLS Web Client Authentication
            X509v3 Subject Key Identifier: 
                E8:7F:A8:5F:F5:C8:73:B4:C7:FE:52:ED:81:94:A6:F2:7B:10:4F:F0
            X509v3 Authority Key Identifier: 
                8A:EC:AB:95:84:4F:E3:07:75:86:68:CC:59:B9:2B:FF:A8:14:5D:E3
            Authority Information Access: 
                CA Issuers - URI:http://pki.scada.local/component-ca.cer
            X509v3 CRL Distribution Points: 
                Full Name:
                  URI:http://pki.scada.local/component-ca.crl
            X509v3 Certificate Policies: 
                Policy: Blue Medium Device Assurance
            X509v3 Subject Alternative Name: 
                DNS:webapp.scada.local
    Signature Algorithm: sha256WithRSAEncryption
    Signature Value:
        48:10:e1:d7:6f:07:ed:98:cd:6b:3b:04:c0:ee:15:4e:54:dd:
        7c:22:bc:7a:70:cc:47:61:cd:ac:d6:e9:a5:90:fd:1f:6d:65:
        a3:6e:00:87:89:d7:6c:49:36:b9:c2:90:f0:9e:d6:c6:8f:f9:
        f4:10:90:93:f2:ff:0a:40:72:b7:f9:4f:05:76:56:24:cf:6a:
        03:b5:8d:45:9f:d3:2e:ce:f8:8f:ef:a5:99:57:a6:7d:76:e3:
        5a:59:f2:5e:76:bb:7f:10:40:61:42:b1:b9:76:86:e5:1a:f7:
        90:54:b2:e2:df:4a:9a:73:17:4d:6e:3d:08:24:e9:a8:3b:aa:
        ba:3b:73:b1:d4:0c:ec:bd:1a:dc:84:1c:df:cf:29:97:66:d9:
        16:26:02:26:e7:55:53:d3:5e:a6:46:be:c9:de:88:68:f1:81:
        96:c2:c5:ce:8d:2a:0f:dc:d6:0b:88:b4:51:4b:19:30:bb:9d:
        f8:03:19:24:99:74:36:cb:54:60:0e:7c:92:45:d1:02:d9:20:
        16:33:74:74:b9:10:29:c1:38:6a:b8:78:fa:0f:f8:bf:38:d6:
        e2:00:6d:a3:0a:80:96:79:ff:5e:af:88:bc:ef:df:2f:9f:ea:
        27:c2:5f:02:5f:90:83:05:2a:5c:e5:92:bd:00:71:49:31:53:
        13:aa:10:10:f7:7b:3e:61:00:55:d4:b8:ac:18:bd:63:86:4d:
        60:fc:ae:51:b0:e8:0a:25:f1:8f:d3:dd:72:7d:50:83:b9:d0:
        8b:fd:63:53:8a:be:24:16:c6:f9:7b:3b:f0:fc:e7:9a:b5:68:
        87:65:5c:93:e1:5b:7a:b9:a9:10:b1:d8:1d:d9:7d:ef:d5:c2:
        24:b5:b0:16:86:b2:df:54:cd:e3:d1:23:44:71:34:a7:d2:55:
        43:08:88:23:42:98:39:3b:99:84:be:68:6f:7c:fc:b8:be:ac:
        a7:80:3b:f8:d3:44:96:3f:79:22:02:b3:1e:48:a1:78:49:1f:
        e1:8c:e5:91:4f:4d:04:88:be:dc:ec:c9:6d:5c:5a:83:fa:d4:
        a1:ca:c8:39:b5:ec:76:37:b8:d6:e3:16:85:63:bf:a9:5e:63:
        cc:2e:55:43:b3:2e:fe:6e:51:83:13:ba:a1:12:89:56:50:5a:
        41:1b:77:9b:ef:85:96:0a:9c:dd:69:9a:d1:87:ed:b9:fe:82:
        05:dc:b4:ff:54:5e:b0:be:f7:86:52:92:22:55:2e:35:34:ce:
        f8:c8:23:a6:e0:2d:84:20:e3:37:a7:30:0f:4f:9a:d9:0b:d6:
        8c:8c:b1:f9:c6:b9:11:d8:4a:27:60:db:e5:8c:8a:08:db:c0:
        81:2d:ae:08:c0:d8:9f:42
-----BEGIN CERTIFICATE-----
MIIFaDCCA1CgAwIBAgIBBDANBgkqhkiG9w0BAQsFADBLMQswCQYDVQQGEwJVUzEO
MAwGA1UECgwFU0NBREExFTATBgNVBAsMDENvbXBvbmVudCBDQTEVMBMGA1UEAwwM
Q29tcG9uZW50IENBMB4XDTIyMTIwMzE5MjEwMVoXDTI0MTIwMjE5MjEwMVowbDEL
MAkGA1UEBhMCVVMxCzAJBgNVBAgMAk5DMRAwDgYDVQQHDAdSYWxlaWdoMQ4wDAYD
VQQKDAVTQ0FEQTETMBEGA1UECwwKU0NBREFfREFUQTEZMBcGA1UEAwwQZGF0YS5z
Y2FkYS5sb2NhbDCCASIwDQYJKoZIhvcNAQEBBQADggEPADCCAQoCggEBAM5+egjn
q7RCdGYE5k4BroyQSm+sydLvsfp89qX5j4KQd05bYmA9pCgnd7aC6LIxVk+gTQrO
klZFFbFC/TkJbRpMGropnOG3Ti6ii/KIBr8ne0sIMdUrotHcbhnjwEPW+kF0rgGv
o7bWtuippPVamvzuXZ9SvmXxVr8b4JfIKs9xFzHztfaByiVdojg9OkEIidkjE2Bb
5P2p3q5+Rc9Q7GpiDEecvAbo9cpdTbjJOyqatsxjzqC7X0JdyQap6gIfleHjNDaz
k+/vB74bAT/+qUgwOUfUTWHrW8QD+O0NzHOaI0a36PIufIY47SxkR70ckvExksyi
O9KAnwHg2JghhJsCAwEAAaOCATQwggEwMA4GA1UdDwEB/wQEAwIFoDAJBgNVHRME
AjAAMB0GA1UdJQQWMBQGCCsGAQUFBwMBBggrBgEFBQcDAjAdBgNVHQ4EFgQU6H+o
X/XIc7TH/lLtgZSm8nsQT/AwHwYDVR0jBBgwFoAUiuyrlYRP4wd1hmjMWbkr/6gU
XeMwQwYIKwYBBQUHAQEENzA1MDMGCCsGAQUFBzAChidodHRwOi8vcGtpLnNjYWRh
LmxvY2FsL2NvbXBvbmVudC1jYS5jZXIwOAYDVR0fBDEwLzAtoCugKYYnaHR0cDov
L3BraS5zY2FkYS5sb2NhbC9jb21wb25lbnQtY2EuY3JsMBYGA1UdIAQPMA0wCwYJ
KwYBBAEAAQcJMB0GA1UdEQQWMBSCEndlYmFwcC5zY2FkYS5sb2NhbDANBgkqhkiG
9w0BAQsFAAOCAgEASBDh128H7ZjNazsEwO4VTlTdfCK8enDMR2HNrNbppZD9H21l
o24Ah4nXbEk2ucKQ8J7Wxo/59BCQk/L/CkByt/lPBXZWJM9qA7WNRZ/TLs74j++l
mVemfXbjWlnyXna7fxBAYUKxuXaG5Rr3kFSy4t9KmnMXTW49CCTpqDuqujtzsdQM
7L0a3IQc388pl2bZFiYCJudVU9Nepka+yd6IaPGBlsLFzo0qD9zWC4i0UUsZMLud
+AMZJJl0NstUYA58kkXRAtkgFjN0dLkQKcE4arh4+g/4vzjW4gBtowqAlnn/Xq+I
vO/fL5/qJ8JfAl+QgwUqXOWSvQBxSTFTE6oQEPd7PmEAVdS4rBi9Y4ZNYPyuUbDo
CiXxj9Pdcn1Qg7nQi/1jU4q+JBbG+Xs78PznmrVoh2Vck+FbermpELHYHdl979XC
JLWwFoay31TN49EjRHE0p9JVQwiII0KYOTuZhL5ob3z8uL6sp4A7+NNElj95IgKz
HkiheEkf4YzlkU9NBIi+3OzJbVxag/rUocrIObXsdje41uMWhWO/qV5jzC5VQ7Mu
/m5RgxO6oRKJVlBaQRt3m++Flgqc3Wma0Yftuf6CBdy0/1ResL73hlKSIlUuNTTO
+MgjpuAthCDjN6cwD0+a2QvWjIyx+ca5EdhKJ2Db5YyKCNvAgS2uCMDYn0I=
-----END CERTIFICATE-----
