Certificate:
    Data:
        Version: 3 (0x2)
        Serial Number: 1 (0x1)
        Signature Algorithm: sha256WithRSAEncryption
        Issuer: C=US, O=SCADA, OU=Component CA, CN=Component CA
        Validity
            Not Before: Dec  3 19:21:00 2022 GMT
            Not After : Dec  2 19:21:00 2024 GMT
        Subject: C=US, ST=NC, L=Raleigh, O=SCADA, OU=SCADA_WEB, CN=web.scada.local
        Subject Public Key Info:
            Public Key Algorithm: rsaEncryption
                Public-Key: (2048 bit)
                Modulus:
                    00:be:25:8e:70:ad:d9:9c:87:bc:04:cb:45:85:21:
                    17:da:60:b3:8f:3a:68:42:19:47:eb:33:c1:16:e1:
                    f0:75:66:ee:f3:d7:fd:21:4f:87:01:9d:1a:40:47:
                    88:38:8d:5a:b8:56:5c:4b:70:e7:8f:fc:c6:e0:67:
                    ca:60:88:ca:9f:02:5d:78:a9:9d:f5:5c:6b:8a:85:
                    7f:be:1b:05:3c:f2:d9:35:18:26:9a:35:d7:bf:07:
                    83:ba:38:ec:c8:fb:3d:9c:81:d0:ca:a1:89:a5:54:
                    41:71:f8:b5:e1:3a:06:06:1b:d5:6c:b0:cf:cd:aa:
                    f2:6e:9e:ee:96:4d:59:df:45:a4:ae:56:9c:7f:5a:
                    8c:2e:fa:f3:8c:7f:23:b7:29:cd:20:30:0e:81:44:
                    49:84:c7:08:52:64:19:f7:40:8c:40:c3:c0:d7:dc:
                    d9:74:f8:59:3d:84:54:c9:e7:29:86:e5:d1:c3:45:
                    33:c7:cc:03:72:ec:7a:79:4a:24:be:1f:e5:c1:92:
                    19:d8:67:34:7d:56:e7:98:55:3f:a1:a9:72:b2:3b:
                    0f:d9:c4:69:72:cb:e9:dc:8e:fa:9a:bc:4f:1d:a7:
                    00:66:39:29:a7:4d:89:21:b2:f3:58:d5:d0:25:73:
                    bb:b6:f5:d7:3e:32:7d:88:df:3a:98:55:ba:1c:3e:
                    53:ed
                Exponent: 65537 (0x10001)
        X509v3 extensions:
            X509v3 Key Usage: critical
                Digital Signature, Key Encipherment
            X509v3 Basic Constraints: 
                CA:FALSE
            X509v3 Extended Key Usage: 
                TLS Web Server Authentication, TLS Web Client Authentication
            X509v3 Subject Key Identifier: 
                8B:E0:03:13:59:32:66:1B:26:67:68:72:D0:EF:24:C6:19:46:24:06
            X509v3 Authority Key Identifier: 
                8A:EC:AB:95:84:4F:E3:07:75:86:68:CC:59:B9:2B:FF:A8:14:5D:E3
            Authority Information Access: 
                CA Issuers - URI:http://pki.scada.local/component-ca.cer
            X509v3 CRL Distribution Points: 
                Full Name:
                  URI:http://pki.scada.local/component-ca.crl
            X509v3 Certificate Policies: 
                Policy: Blue Medium Device Assurance
            X509v3 Subject Alternative Name: 
                DNS:webapp.scada.local
    Signature Algorithm: sha256WithRSAEncryption
    Signature Value:
        88:60:0b:0d:18:3c:81:53:61:79:95:fe:5d:17:1a:3a:8c:02:
        b9:6f:99:03:78:db:26:cd:15:e4:a7:ef:05:82:38:a7:e0:ee:
        8b:02:c1:91:01:25:c5:c1:50:2a:3a:c8:3d:1d:5d:a0:45:ba:
        63:27:19:23:4d:39:ff:cd:3b:59:de:d7:f6:fb:7a:83:de:33:
        de:bb:96:b3:8b:3f:85:cb:06:83:c4:35:49:ed:c3:86:7c:00:
        18:1b:ed:6c:de:e2:14:67:6c:1b:b4:5b:50:e5:00:cf:e9:8f:
        6a:25:57:cb:61:d7:1e:79:04:67:d2:09:4c:d0:a6:55:18:52:
        80:3a:b2:fb:1e:61:80:8e:d2:96:de:98:e4:95:4c:d4:e5:21:
        1b:72:ce:4a:4c:18:70:1e:55:ca:8b:53:46:b2:54:78:53:8b:
        04:af:b6:87:2c:ae:56:0e:86:32:5f:08:9f:a7:3f:7d:02:f0:
        e7:eb:b6:70:40:5e:9e:57:1d:35:18:c3:66:1b:09:9c:3e:e6:
        8e:1a:db:8e:b7:95:23:c4:a4:75:99:2c:ad:c7:83:57:3d:61:
        cf:b0:c6:5a:0e:50:43:e1:6b:35:a4:9c:3e:2a:79:09:7a:77:
        10:16:23:23:9f:c0:f3:19:c8:4e:95:3d:a3:01:02:29:a8:0c:
        00:1f:99:6f:5d:b1:f3:84:74:fd:78:3b:54:42:3f:d0:94:18:
        17:cf:ff:3d:99:3a:d5:fb:d9:6d:21:55:2e:45:c8:60:15:8f:
        d5:d3:64:07:c8:65:63:f4:68:c5:32:46:9f:ca:c8:a5:a9:69:
        f8:03:da:c8:75:bc:91:fd:f1:5c:c4:19:1b:1b:0c:5f:cd:08:
        0e:ff:b8:b8:84:72:01:27:81:4d:cd:1b:02:8a:7e:61:6a:c3:
        32:66:4b:16:e0:3f:a6:94:84:ca:a0:dd:f8:74:1d:57:95:38:
        d7:d5:64:b8:10:01:c1:1c:3e:a4:4c:8e:0a:90:74:53:35:19:
        dd:13:58:f0:e9:5a:d3:70:e3:68:56:70:d4:1b:06:13:95:94:
        26:f0:42:35:15:a0:8d:06:53:68:4c:d6:17:3b:3a:5b:40:de:
        b2:05:3e:8e:53:0b:c9:99:5d:a6:0c:06:0c:66:d1:08:46:ca:
        ed:71:94:35:bb:23:91:b4:9a:df:e4:2b:94:14:28:0c:14:cb:
        88:72:73:c6:7a:de:f4:c6:01:70:00:31:a0:b4:fa:f1:9c:54:
        0f:a0:a7:84:ae:03:47:ab:b3:00:e9:b5:b8:fc:77:0d:4a:9e:
        d4:7d:26:5c:36:38:be:83:8d:a1:a9:e5:78:b7:f6:84:b5:7b:
        e1:04:70:f9:77:dc:34:81
-----BEGIN CERTIFICATE-----
MIIFZjCCA06gAwIBAgIBATANBgkqhkiG9w0BAQsFADBLMQswCQYDVQQGEwJVUzEO
MAwGA1UECgwFU0NBREExFTATBgNVBAsMDENvbXBvbmVudCBDQTEVMBMGA1UEAwwM
Q29tcG9uZW50IENBMB4XDTIyMTIwMzE5MjEwMFoXDTI0MTIwMjE5MjEwMFowajEL
MAkGA1UEBhMCVVMxCzAJBgNVBAgMAk5DMRAwDgYDVQQHDAdSYWxlaWdoMQ4wDAYD
VQQKDAVTQ0FEQTESMBAGA1UECwwJU0NBREFfV0VCMRgwFgYDVQQDDA93ZWIuc2Nh
ZGEubG9jYWwwggEiMA0GCSqGSIb3DQEBAQUAA4IBDwAwggEKAoIBAQC+JY5wrdmc
h7wEy0WFIRfaYLOPOmhCGUfrM8EW4fB1Zu7z1/0hT4cBnRpAR4g4jVq4VlxLcOeP
/MbgZ8pgiMqfAl14qZ31XGuKhX++GwU88tk1GCaaNde/B4O6OOzI+z2cgdDKoYml
VEFx+LXhOgYGG9VssM/NqvJunu6WTVnfRaSuVpx/Wowu+vOMfyO3Kc0gMA6BREmE
xwhSZBn3QIxAw8DX3Nl0+Fk9hFTJ5ymG5dHDRTPHzANy7Hp5SiS+H+XBkhnYZzR9
VueYVT+hqXKyOw/ZxGlyy+ncjvqavE8dpwBmOSmnTYkhsvNY1dAlc7u29dc+Mn2I
3zqYVbocPlPtAgMBAAGjggE0MIIBMDAOBgNVHQ8BAf8EBAMCBaAwCQYDVR0TBAIw
ADAdBgNVHSUEFjAUBggrBgEFBQcDAQYIKwYBBQUHAwIwHQYDVR0OBBYEFIvgAxNZ
MmYbJmdoctDvJMYZRiQGMB8GA1UdIwQYMBaAFIrsq5WET+MHdYZozFm5K/+oFF3j
MEMGCCsGAQUFBwEBBDcwNTAzBggrBgEFBQcwAoYnaHR0cDovL3BraS5zY2FkYS5s
b2NhbC9jb21wb25lbnQtY2EuY2VyMDgGA1UdHwQxMC8wLaAroCmGJ2h0dHA6Ly9w
a2kuc2NhZGEubG9jYWwvY29tcG9uZW50LWNhLmNybDAWBgNVHSAEDzANMAsGCSsG
AQQBAAEHCTAdBgNVHREEFjAUghJ3ZWJhcHAuc2NhZGEubG9jYWwwDQYJKoZIhvcN
AQELBQADggIBAIhgCw0YPIFTYXmV/l0XGjqMArlvmQN42ybNFeSn7wWCOKfg7osC
wZEBJcXBUCo6yD0dXaBFumMnGSNNOf/NO1ne1/b7eoPeM967lrOLP4XLBoPENUnt
w4Z8ABgb7Wze4hRnbBu0W1DlAM/pj2olV8th1x55BGfSCUzQplUYUoA6svseYYCO
0pbemOSVTNTlIRtyzkpMGHAeVcqLU0ayVHhTiwSvtocsrlYOhjJfCJ+nP30C8Ofr
tnBAXp5XHTUYw2YbCZw+5o4a2463lSPEpHWZLK3Hg1c9Yc+wxloOUEPhazWknD4q
eQl6dxAWIyOfwPMZyE6VPaMBAimoDAAfmW9dsfOEdP14O1RCP9CUGBfP/z2ZOtX7
2W0hVS5FyGAVj9XTZAfIZWP0aMUyRp/KyKWpafgD2sh1vJH98VzEGRsbDF/NCA7/
uLiEcgEngU3NGwKKfmFqwzJmSxbgP6aUhMqg3fh0HVeVONfVZLgQAcEcPqRMjgqQ
dFM1Gd0TWPDpWtNw42hWcNQbBhOVlCbwQjUVoI0GU2hM1hc7OltA3rIFPo5TC8mZ
XaYMBgxm0QhGyu1xlDW7I5G0mt/kK5QUKAwUy4hyc8Z63vTGAXAAMaC0+vGcVA+g
p4SuA0erswDptbj8dw1KntR9Jlw2OL6DjaGp5Xi39oS1e+EEcPl33DSB
-----END CERTIFICATE-----
