Certificate:
    Data:
        Version: 3 (0x2)
        Serial Number: 10 (0xa)
        Signature Algorithm: sha256WithRSAEncryption
        Issuer: C=US, O=SCADA, OU=Component CA, CN=Component CA
        Validity
            Not Before: Dec  5 20:18:33 2022 GMT
            Not After : Dec  4 20:18:33 2024 GMT
        Subject: C=US, ST=NC, L=Raleigh, O=SCADA, OU=SCADA_DATA, CN=data.scada.local
        Subject Public Key Info:
            Public Key Algorithm: rsaEncryption
                Public-Key: (4096 bit)
                Modulus:
                    00:c0:e0:65:16:85:ac:43:1e:73:2e:46:57:b5:ef:
                    ca:64:e7:cc:c9:91:be:ea:44:94:e6:b9:f2:25:84:
                    ae:be:de:f7:e0:08:94:eb:b6:bb:5b:dc:c6:32:fc:
                    1f:b3:ed:dd:1c:7b:9d:15:22:dd:81:63:96:a0:9b:
                    ac:c2:d3:17:b4:4d:da:c0:a6:9d:97:9d:f0:c3:fe:
                    3c:d0:91:3f:7f:1a:01:38:bb:6d:f5:f6:02:54:bf:
                    62:dd:24:ab:34:5f:0e:fe:23:f6:64:1b:21:1b:14:
                    f1:12:19:f6:15:e1:6b:c1:21:16:24:a8:c9:2c:dd:
                    09:4f:54:50:5c:04:6a:44:c5:1e:21:c3:43:74:ab:
                    71:e4:fe:db:b8:97:2a:8e:6e:59:30:57:4e:15:65:
                    6f:c4:db:19:92:5a:22:ae:64:00:35:d1:d0:78:81:
                    0b:52:63:5c:8d:15:0e:7c:10:23:3e:b5:61:6d:86:
                    55:9c:9c:42:f4:02:ff:66:2b:bd:a8:7b:bf:f5:62:
                    85:cb:82:7e:4d:e9:6e:9c:1d:ca:a3:2a:a1:db:a0:
                    4c:a5:9b:99:93:8d:7b:b3:86:07:04:d4:18:7f:f7:
                    b1:4b:65:98:1e:cc:25:89:b2:e6:e2:34:08:86:b6:
                    42:3f:c8:a5:e8:9f:03:33:a4:3d:89:6d:9b:49:eb:
                    57:b2:3c:8a:85:c1:54:93:0a:79:cb:58:e5:bb:e1:
                    7f:c0:49:96:01:a5:a6:a7:62:a7:95:01:46:cd:8a:
                    5d:e5:48:4d:72:8b:c6:cc:da:ec:22:1f:5a:fe:1f:
                    c4:2d:de:59:68:ac:7f:cb:23:5f:7a:fb:5c:ea:5e:
                    9d:49:5e:53:cd:99:70:ce:82:1b:35:a1:8a:ad:b0:
                    48:a8:14:f8:b0:25:77:62:40:c1:e0:9e:0b:58:d0:
                    0c:a4:c8:21:18:e2:55:46:93:cf:31:90:25:db:9d:
                    47:48:92:62:23:3f:10:35:a3:18:86:9a:b4:41:9a:
                    84:c0:72:2a:d5:f7:86:bf:6f:61:55:43:a0:d8:3b:
                    e9:74:2f:bf:7c:56:72:c1:f5:16:eb:f1:81:a7:20:
                    f1:c1:18:96:d3:4f:5b:9c:c6:02:ba:33:55:f7:1e:
                    64:7e:5f:c6:5a:38:5c:34:0f:db:3e:36:fa:b3:85:
                    94:48:c9:92:ab:a2:24:c5:55:eb:7d:a8:f8:48:62:
                    a8:4d:ce:9b:5a:da:87:f8:d2:0b:94:9c:3a:2c:81:
                    ba:f9:aa:0b:22:06:ba:6b:7c:49:50:ed:94:c5:10:
                    89:35:f2:84:f1:7f:41:70:ee:c7:81:53:33:77:ef:
                    4b:87:f8:16:17:e0:32:c5:c8:42:7c:dc:2d:9a:c6:
                    f6:aa:95
                Exponent: 65537 (0x10001)
        X509v3 extensions:
            X509v3 Key Usage: critical
                Digital Signature
            X509v3 Basic Constraints: 
                CA:FALSE
            X509v3 Extended Key Usage: 
                TLS Web Client Authentication
            X509v3 Subject Key Identifier: 
                A3:19:F1:9E:9E:17:29:9B:3F:81:0E:4B:B1:E5:54:5D:BF:FC:E0:27
            X509v3 Authority Key Identifier: 
                8A:EC:AB:95:84:4F:E3:07:75:86:68:CC:59:B9:2B:FF:A8:14:5D:E3
            Authority Information Access: 
                CA Issuers - URI:http://pki.scada.local/component-ca.cer
            X509v3 CRL Distribution Points: 
                Full Name:
                  URI:http://pki.scada.local/component-ca.crl
            X509v3 Certificate Policies: 
                Policy: Blue Medium Device Assurance
    Signature Algorithm: sha256WithRSAEncryption
    Signature Value:
        59:96:ec:08:06:eb:e3:7e:6a:4a:fd:7a:21:92:fe:c3:66:11:
        2d:7d:de:c0:d7:d6:8c:cd:f2:22:1d:8d:70:4a:93:bb:9f:02:
        18:e1:4d:e9:bf:2d:35:52:d2:9c:c1:c3:8e:ec:a6:66:e5:52:
        c3:0c:ea:72:6e:f1:3f:49:94:93:71:af:13:d5:65:b6:73:7c:
        d2:b1:12:b6:17:0e:a1:71:c5:10:a9:5f:2f:9e:ca:95:69:10:
        38:25:47:35:3b:26:01:e0:74:6b:14:ad:11:29:71:0c:ab:b2:
        0c:49:fe:40:f6:0c:2f:b7:ad:2c:ed:0e:92:c4:fa:05:80:d8:
        8a:3f:19:08:41:15:e6:ba:b1:cb:d7:eb:2c:f4:f5:af:1c:f5:
        b5:b8:f5:77:8c:3d:ce:ad:e0:60:5d:ca:bb:1c:d8:96:4d:c9:
        22:67:32:82:13:a0:51:3c:e8:b7:c1:e4:27:c6:85:fe:8e:9e:
        5d:5e:fc:e9:f6:82:5d:1c:80:45:25:f9:97:a3:85:ca:a8:39:
        01:ed:7b:f9:30:98:3e:a7:3f:d1:ff:50:a0:36:81:60:19:0d:
        6d:73:25:6c:0c:ce:04:6f:0e:92:d9:49:9a:e9:97:9a:e4:d4:
        f6:5e:63:bb:95:b6:94:b1:c2:da:a8:00:72:18:a1:73:ce:8b:
        6a:14:f6:a7:10:8b:20:d8:af:ba:fc:6f:98:ce:8b:a5:2d:c0:
        ac:40:5a:69:07:b3:70:1b:a0:27:84:f2:90:75:4f:17:63:2e:
        a6:98:d3:76:65:cb:ca:10:93:16:c1:83:5f:a4:f4:1e:d6:28:
        71:fd:59:33:c9:65:74:ac:66:04:c4:2f:2c:fc:57:e3:d7:0c:
        8e:8f:d0:65:37:69:85:2f:52:08:b5:6d:3e:57:bf:51:3c:3c:
        4b:b6:f8:74:ab:82:e0:2a:fc:8a:f2:fa:28:7c:dc:ec:0e:24:
        5e:80:c1:3e:82:6b:a3:99:c1:41:f0:42:ff:df:5c:0c:36:31:
        f8:fd:c2:e5:a6:5c:4c:65:88:9a:50:c5:6d:f5:eb:22:59:a0:
        f8:6c:82:7f:f9:db:92:03:20:2b:62:80:b6:a8:b2:5f:59:02:
        ba:a1:a8:e3:6d:4a:32:b4:5d:12:a9:37:c0:d0:70:2e:cd:41:
        19:cf:fd:e5:3e:98:4a:ce:06:85:1b:ad:7f:ae:79:60:80:57:
        63:ab:46:6c:0b:c4:f1:b0:c3:52:89:1d:8a:db:cf:b7:c6:0d:
        6c:d3:88:5c:eb:cd:09:91:00:b1:ac:f9:5e:53:f1:cc:58:b9:
        f6:a0:3d:dd:de:93:f7:71:69:1f:0a:5a:19:41:19:38:e6:6f:
        14:8a:ef:db:9d:e0:f7:c8
-----BEGIN CERTIFICATE-----
MIIGPzCCBCegAwIBAgIBCjANBgkqhkiG9w0BAQsFADBLMQswCQYDVQQGEwJVUzEO
MAwGA1UECgwFU0NBREExFTATBgNVBAsMDENvbXBvbmVudCBDQTEVMBMGA1UEAwwM
Q29tcG9uZW50IENBMB4XDTIyMTIwNTIwMTgzM1oXDTI0MTIwNDIwMTgzM1owbDEL
MAkGA1UEBhMCVVMxCzAJBgNVBAgMAk5DMRAwDgYDVQQHDAdSYWxlaWdoMQ4wDAYD
VQQKDAVTQ0FEQTETMBEGA1UECwwKU0NBREFfREFUQTEZMBcGA1UEAwwQZGF0YS5z
Y2FkYS5sb2NhbDCCAiIwDQYJKoZIhvcNAQEBBQADggIPADCCAgoCggIBAMDgZRaF
rEMecy5GV7XvymTnzMmRvupElOa58iWErr7e9+AIlOu2u1vcxjL8H7Pt3Rx7nRUi
3YFjlqCbrMLTF7RN2sCmnZed8MP+PNCRP38aATi7bfX2AlS/Yt0kqzRfDv4j9mQb
IRsU8RIZ9hXha8EhFiSoySzdCU9UUFwEakTFHiHDQ3SrceT+27iXKo5uWTBXThVl
b8TbGZJaIq5kADXR0HiBC1JjXI0VDnwQIz61YW2GVZycQvQC/2Yrvah7v/VihcuC
fk3pbpwdyqMqodugTKWbmZONe7OGBwTUGH/3sUtlmB7MJYmy5uI0CIa2Qj/Ipeif
AzOkPYltm0nrV7I8ioXBVJMKectY5bvhf8BJlgGlpqdip5UBRs2KXeVITXKLxsza
7CIfWv4fxC3eWWisf8sjX3r7XOpenUleU82ZcM6CGzWhiq2wSKgU+LAld2JAweCe
C1jQDKTIIRjiVUaTzzGQJdudR0iSYiM/EDWjGIaatEGahMByKtX3hr9vYVVDoNg7
6XQvv3xWcsH1Fuvxgacg8cEYltNPW5zGArozVfceZH5fxlo4XDQP2z42+rOFlEjJ
kquiJMVV632o+EhiqE3Om1rah/jSC5ScOiyBuvmqCyIGumt8SVDtlMUQiTXyhPF/
QXDux4FTM3fvS4f4FhfgMsXIQnzcLZrG9qqVAgMBAAGjggELMIIBBzAOBgNVHQ8B
Af8EBAMCB4AwCQYDVR0TBAIwADATBgNVHSUEDDAKBggrBgEFBQcDAjAdBgNVHQ4E
FgQUoxnxnp4XKZs/gQ5LseVUXb/84CcwHwYDVR0jBBgwFoAUiuyrlYRP4wd1hmjM
Wbkr/6gUXeMwQwYIKwYBBQUHAQEENzA1MDMGCCsGAQUFBzAChidodHRwOi8vcGtp
LnNjYWRhLmxvY2FsL2NvbXBvbmVudC1jYS5jZXIwOAYDVR0fBDEwLzAtoCugKYYn
aHR0cDovL3BraS5zY2FkYS5sb2NhbC9jb21wb25lbnQtY2EuY3JsMBYGA1UdIAQP
MA0wCwYJKwYBBAEAAQcJMA0GCSqGSIb3DQEBCwUAA4ICAQBZluwIBuvjfmpK/Xoh
kv7DZhEtfd7A19aMzfIiHY1wSpO7nwIY4U3pvy01UtKcwcOO7KZm5VLDDOpybvE/
SZSTca8T1WW2c3zSsRK2Fw6hccUQqV8vnsqVaRA4JUc1OyYB4HRrFK0RKXEMq7IM
Sf5A9gwvt60s7Q6SxPoFgNiKPxkIQRXmurHL1+ss9PWvHPW1uPV3jD3OreBgXcq7
HNiWTckiZzKCE6BRPOi3weQnxoX+jp5dXvzp9oJdHIBFJfmXo4XKqDkB7Xv5MJg+
pz/R/1CgNoFgGQ1tcyVsDM4Ebw6S2Uma6Zea5NT2XmO7lbaUscLaqAByGKFzzotq
FPanEIsg2K+6/G+YzoulLcCsQFppB7NwG6AnhPKQdU8XYy6mmNN2ZcvKEJMWwYNf
pPQe1ihx/VkzyWV0rGYExC8s/Ffj1wyOj9BlN2mFL1IItW0+V79RPDxLtvh0q4Lg
KvyK8voofNzsDiRegME+gmujmcFB8EL/31wMNjH4/cLlplxMZYiaUMVt9esiWaD4
bIJ/+duSAyArYoC2qLJfWQK6oajjbUoytF0SqTfA0HAuzUEZz/3lPphKzgaFG61/
rnlggFdjq0ZsC8TxsMNSiR2K28+3xg1s04hc680JkQCxrPleU/HMWLn2oD3d3pP3
cWkfCloZQRk45m8Uiu/bneD3yA==
-----END CERTIFICATE-----
