Certificate:
    Data:
        Version: 3 (0x2)
        Serial Number: 8 (0x8)
        Signature Algorithm: sha256WithRSAEncryption
        Issuer: C=US, O=SCADA, OU=Component CA, CN=Component CA
        Validity
            Not Before: Dec  5 20:16:10 2022 GMT
            Not After : Dec  4 20:16:10 2024 GMT
        Subject: C=US, ST=NC, L=Raleigh, O=SCADA, OU=SCADA_AUTH, CN=auth.scada.local
        Subject Public Key Info:
            Public Key Algorithm: rsaEncryption
                Public-Key: (4096 bit)
                Modulus:
                    00:81:3a:22:2c:d5:00:0e:2e:cb:c6:a9:48:c5:c7:
                    d1:84:72:7e:7a:65:af:2a:d2:45:7a:39:aa:e4:57:
                    08:c0:13:bc:ce:45:52:9d:02:02:1d:f1:e1:a8:24:
                    bf:c3:df:cf:cb:d0:5e:9e:0a:7d:8e:64:bf:15:67:
                    21:41:3f:76:c2:83:ae:4e:4d:e5:a9:44:9a:c5:3f:
                    fd:6b:c5:3a:d7:99:47:87:19:08:cf:2a:b0:5b:5c:
                    12:8a:5e:a9:53:1a:59:5d:23:b3:87:af:b5:fe:7b:
                    2e:74:f6:81:56:4a:25:49:5c:de:b0:dc:e5:92:79:
                    20:c1:e5:cf:06:2c:98:69:56:cf:f4:c3:3c:0a:49:
                    64:29:94:a2:46:ff:fa:de:02:e5:27:d8:e4:e2:b6:
                    2e:21:1d:de:0b:34:c2:b0:17:32:8f:a6:aa:4f:8d:
                    55:0a:97:34:a7:88:43:5a:26:9f:56:f8:2d:a4:a7:
                    ae:4d:76:5b:b0:18:64:0e:4c:86:58:da:93:46:5d:
                    c5:97:94:ae:f2:f5:f0:17:c6:ab:c9:5c:2d:41:3d:
                    73:c5:3d:f0:62:91:25:19:4d:7a:2b:3c:19:68:d1:
                    37:a1:0f:96:c8:e6:39:ae:d4:4c:b5:98:25:70:71:
                    a3:7a:fb:93:6d:e5:9b:d5:5a:b5:5d:4e:90:f1:9a:
                    a8:62:61:92:20:0b:2b:e3:07:46:33:08:03:94:d7:
                    f4:45:a9:8d:fb:a4:3b:e6:bb:f0:d4:e5:55:02:e7:
                    e3:04:8d:20:12:a4:65:cb:bc:83:bb:c3:c3:25:ee:
                    5a:f4:4f:41:13:ff:41:ee:ac:9f:a8:2c:ca:94:85:
                    ae:88:ae:3d:d3:ec:fe:23:23:ad:d3:70:c7:18:b9:
                    8f:c7:c5:03:3f:f9:f6:63:b1:cf:10:35:b1:f5:da:
                    8b:47:d4:c9:a7:fd:2f:20:4c:16:51:70:39:25:80:
                    00:76:1a:e2:6d:0b:86:d2:a6:41:a3:fe:f3:21:f9:
                    2c:bd:d2:d1:0b:bd:a0:ff:67:97:1e:8e:cf:a2:79:
                    97:e2:c2:73:ca:b8:ba:cf:0b:37:14:81:75:b8:ea:
                    bb:c4:25:79:53:58:94:f2:da:0e:49:4f:60:ef:e4:
                    15:0c:51:0b:24:9f:72:8b:32:a5:00:63:71:f7:84:
                    17:6c:25:27:24:66:d0:62:86:8e:21:c2:5f:85:01:
                    e0:ce:49:fd:0a:d1:b0:72:4e:7b:d9:0d:b3:7b:51:
                    54:d7:44:29:9b:10:03:6c:9d:0a:87:ea:af:0f:9d:
                    21:f5:35:52:36:37:df:f3:db:65:43:6e:0c:f9:5e:
                    98:62:3f:0b:44:60:37:b2:ee:7e:c9:d7:13:ea:32:
                    63:ef:bf
                Exponent: 65537 (0x10001)
        X509v3 extensions:
            X509v3 Key Usage: critical
                Digital Signature
            X509v3 Basic Constraints: 
                CA:FALSE
            X509v3 Extended Key Usage: 
                TLS Web Client Authentication
            X509v3 Subject Key Identifier: 
                18:BB:45:4A:12:11:AB:C6:40:C4:51:86:7C:E6:16:9D:DC:25:68:0A
            X509v3 Authority Key Identifier: 
                8A:EC:AB:95:84:4F:E3:07:75:86:68:CC:59:B9:2B:FF:A8:14:5D:E3
            Authority Information Access: 
                CA Issuers - URI:http://pki.scada.local/component-ca.cer
            X509v3 CRL Distribution Points: 
                Full Name:
                  URI:http://pki.scada.local/component-ca.crl
            X509v3 Certificate Policies: 
                Policy: Blue Medium Device Assurance
    Signature Algorithm: sha256WithRSAEncryption
    Signature Value:
        2d:66:b0:29:49:0e:76:2f:06:0b:9b:7d:15:57:49:28:69:35:
        26:df:b9:c6:34:00:83:41:96:2d:7e:52:4c:4a:20:87:f9:3d:
        96:0f:2c:c6:ba:6f:1d:bc:17:fc:3c:85:45:3a:eb:97:bd:66:
        0b:79:b6:d6:15:04:5e:5c:d9:31:29:ff:e7:77:81:92:7c:00:
        ee:09:11:fb:d0:0b:3e:3a:1e:44:7c:08:ef:db:74:c9:57:01:
        87:8e:3f:1a:79:38:f8:7d:f6:83:0d:d0:25:89:d7:73:ca:2d:
        0d:33:86:ea:00:7b:6d:db:74:38:aa:bb:f6:27:a3:de:e6:75:
        ad:c7:fa:9f:74:e9:7b:de:35:e5:61:9b:23:43:96:c1:02:a3:
        79:c9:45:92:c9:e2:83:19:4b:fa:fd:2a:f8:19:a6:10:e9:16:
        ff:78:bd:8d:0a:93:2d:9c:f4:31:11:be:d3:1d:95:ea:85:3a:
        3f:eb:c6:31:fe:0f:da:9b:3a:e1:0f:e2:be:1b:a4:76:34:35:
        d3:9a:05:a1:8d:e7:be:ed:82:75:78:fb:8e:c7:21:9c:17:b9:
        51:db:00:e6:2b:d8:05:3a:cb:6a:d2:d0:8a:d6:a4:7c:3a:f9:
        89:bd:14:a0:85:07:1e:17:c0:13:a5:8b:93:e6:c0:09:c8:c4:
        1b:46:8c:c7:7b:7b:c9:70:52:7b:a8:9e:c6:f3:10:d1:2d:a3:
        a3:89:8b:27:7c:67:e5:f5:a3:36:14:44:f0:79:35:0c:db:cf:
        69:84:37:84:e2:e6:41:50:53:72:4b:18:84:4e:ce:00:73:09:
        7e:4f:95:46:e6:f2:9d:0b:a5:2e:16:c2:c0:ba:bb:49:88:10:
        bb:89:97:a1:6c:f6:e3:47:5f:3f:7a:7b:37:bf:ee:34:1b:73:
        fc:03:24:f1:56:58:cb:ba:77:3a:eb:b2:8d:18:4a:52:d4:31:
        ff:01:1f:ef:96:8c:50:da:bb:43:f4:1a:88:e3:9b:14:36:59:
        1f:7c:fc:3e:17:ce:60:60:8c:98:f9:04:99:f9:d6:42:eb:21:
        16:83:f3:99:a7:b7:f9:98:19:25:94:81:4f:30:e5:48:0e:85:
        89:01:e4:a3:26:13:9a:f2:a8:80:3a:e9:15:0c:f6:15:43:b8:
        33:84:63:23:a7:fa:8a:87:89:fe:c0:80:5e:68:7b:37:7c:44:
        72:d0:e7:43:c0:91:3e:af:8f:d3:cb:8f:21:aa:a1:f1:41:98:
        4b:4a:1d:80:49:d8:46:fa:4a:e0:4d:75:22:e4:5e:91:4f:8f:
        f9:b1:fa:31:00:54:c4:07:bb:d5:72:6e:a2:ad:63:54:28:31:
        68:43:69:07:dc:01:07:5c
-----BEGIN CERTIFICATE-----
MIIGPzCCBCegAwIBAgIBCDANBgkqhkiG9w0BAQsFADBLMQswCQYDVQQGEwJVUzEO
MAwGA1UECgwFU0NBREExFTATBgNVBAsMDENvbXBvbmVudCBDQTEVMBMGA1UEAwwM
Q29tcG9uZW50IENBMB4XDTIyMTIwNTIwMTYxMFoXDTI0MTIwNDIwMTYxMFowbDEL
MAkGA1UEBhMCVVMxCzAJBgNVBAgMAk5DMRAwDgYDVQQHDAdSYWxlaWdoMQ4wDAYD
VQQKDAVTQ0FEQTETMBEGA1UECwwKU0NBREFfQVVUSDEZMBcGA1UEAwwQYXV0aC5z
Y2FkYS5sb2NhbDCCAiIwDQYJKoZIhvcNAQEBBQADggIPADCCAgoCggIBAIE6IizV
AA4uy8apSMXH0YRyfnplryrSRXo5quRXCMATvM5FUp0CAh3x4agkv8Pfz8vQXp4K
fY5kvxVnIUE/dsKDrk5N5alEmsU//WvFOteZR4cZCM8qsFtcEopeqVMaWV0js4ev
tf57LnT2gVZKJUlc3rDc5ZJ5IMHlzwYsmGlWz/TDPApJZCmUokb/+t4C5SfY5OK2
LiEd3gs0wrAXMo+mqk+NVQqXNKeIQ1omn1b4LaSnrk12W7AYZA5Mhljak0ZdxZeU
rvL18BfGq8lcLUE9c8U98GKRJRlNeis8GWjRN6EPlsjmOa7UTLWYJXBxo3r7k23l
m9VatV1OkPGaqGJhkiALK+MHRjMIA5TX9EWpjfukO+a78NTlVQLn4wSNIBKkZcu8
g7vDwyXuWvRPQRP/Qe6sn6gsypSFroiuPdPs/iMjrdNwxxi5j8fFAz/59mOxzxA1
sfXai0fUyaf9LyBMFlFwOSWAAHYa4m0LhtKmQaP+8yH5LL3S0Qu9oP9nlx6Oz6J5
l+LCc8q4us8LNxSBdbjqu8QleVNYlPLaDklPYO/kFQxRCySfcosypQBjcfeEF2wl
JyRm0GKGjiHCX4UB4M5J/QrRsHJOe9kNs3tRVNdEKZsQA2ydCofqrw+dIfU1UjY3
3/PbZUNuDPlemGI/C0RgN7LufsnXE+oyY++/AgMBAAGjggELMIIBBzAOBgNVHQ8B
Af8EBAMCB4AwCQYDVR0TBAIwADATBgNVHSUEDDAKBggrBgEFBQcDAjAdBgNVHQ4E
FgQUGLtFShIRq8ZAxFGGfOYWndwlaAowHwYDVR0jBBgwFoAUiuyrlYRP4wd1hmjM
Wbkr/6gUXeMwQwYIKwYBBQUHAQEENzA1MDMGCCsGAQUFBzAChidodHRwOi8vcGtp
LnNjYWRhLmxvY2FsL2NvbXBvbmVudC1jYS5jZXIwOAYDVR0fBDEwLzAtoCugKYYn
aHR0cDovL3BraS5zY2FkYS5sb2NhbC9jb21wb25lbnQtY2EuY3JsMBYGA1UdIAQP
MA0wCwYJKwYBBAEAAQcJMA0GCSqGSIb3DQEBCwUAA4ICAQAtZrApSQ52LwYLm30V
V0koaTUm37nGNACDQZYtflJMSiCH+T2WDyzGum8dvBf8PIVFOuuXvWYLebbWFQRe
XNkxKf/nd4GSfADuCRH70As+Oh5EfAjv23TJVwGHjj8aeTj4ffaDDdAliddzyi0N
M4bqAHtt23Q4qrv2J6Pe5nWtx/qfdOl73jXlYZsjQ5bBAqN5yUWSyeKDGUv6/Sr4
GaYQ6Rb/eL2NCpMtnPQxEb7THZXqhTo/68Yx/g/amzrhD+K+G6R2NDXTmgWhjee+
7YJ1ePuOxyGcF7lR2wDmK9gFOstq0tCK1qR8OvmJvRSghQceF8ATpYuT5sAJyMQb
RozHe3vJcFJ7qJ7G8xDRLaOjiYsnfGfl9aM2FETweTUM289phDeE4uZBUFNySxiE
Ts4Acwl+T5VG5vKdC6UuFsLAurtJiBC7iZehbPbjR18/ens3v+40G3P8AyTxVljL
unc667KNGEpS1DH/AR/vloxQ2rtD9BqI45sUNlkffPw+F85gYIyY+QSZ+dZC6yEW
g/OZp7f5mBkllIFPMOVIDoWJAeSjJhOa8qiAOukVDPYVQ7gzhGMjp/qKh4n+wIBe
aHs3fERy0OdDwJE+r4/Ty48hqqHxQZhLSh2ASdhG+krgTXUi5F6RT4/5sfoxAFTE
B7vVcm6irWNUKDFoQ2kH3AEHXA==
-----END CERTIFICATE-----
