Certificate:
    Data:
        Version: 3 (0x2)
        Serial Number: 9 (0x9)
        Signature Algorithm: sha256WithRSAEncryption
        Issuer: C=US, O=SCADA, OU=Component CA, CN=Component CA
        Validity
            Not Before: Dec  5 20:16:24 2022 GMT
            Not After : Dec  4 20:16:24 2024 GMT
        Subject: C=US, ST=NC, L=Raleigh, O=SCADA, OU=SCADA_AUTH, CN=auth.scada.local
        Subject Public Key Info:
            Public Key Algorithm: rsaEncryption
                Public-Key: (4096 bit)
                Modulus:
                    00:b2:4d:7b:f8:c5:2f:5f:93:1b:a1:a4:6e:be:d5:
                    25:22:38:3e:d4:c1:4d:d6:e1:25:fe:c1:34:0e:66:
                    8b:f2:0e:84:68:35:28:9b:b1:0f:fc:7f:cf:57:41:
                    ea:c8:b7:91:76:81:80:e3:e6:c5:c5:6c:17:52:83:
                    bf:3a:de:e1:84:e6:b6:bd:1f:91:78:39:6d:55:05:
                    48:4f:a0:af:0a:e8:49:e2:27:c9:a0:b4:88:95:63:
                    a1:79:e2:65:ba:c9:04:08:23:b2:4e:24:ec:f3:a7:
                    a4:ea:77:b3:57:43:02:c7:96:b9:cd:e0:bf:9e:ce:
                    7f:ec:92:d8:d0:6f:9d:04:cd:45:8a:40:ff:68:dc:
                    12:f7:35:c7:34:8d:8a:d0:06:e8:2e:0e:ee:13:f8:
                    92:bf:58:8d:64:47:40:ac:4b:4b:18:81:6f:f7:33:
                    94:70:30:dc:d2:9d:05:ec:97:6a:2d:40:ab:82:1a:
                    21:31:c0:7c:c3:37:89:83:a2:da:d9:3a:6b:af:3f:
                    6f:e5:78:5d:04:83:85:ff:e5:6f:b0:35:85:05:4b:
                    f5:22:cd:c9:a4:06:fb:8f:88:cf:f0:11:31:a5:43:
                    17:46:91:a5:74:e0:af:96:04:71:1b:ad:ef:05:83:
                    c5:2a:80:61:e9:48:5b:3f:63:7d:2a:f5:89:a2:97:
                    7c:a6:b3:a4:2c:51:f2:f9:c1:61:01:b5:20:33:0c:
                    fd:c5:82:bc:13:c4:b8:f0:01:11:6e:ce:e4:6c:05:
                    c4:51:72:01:d5:d4:53:55:5f:40:0a:d6:9b:e8:09:
                    54:4f:17:97:47:e5:6f:a6:65:9a:94:c1:3d:ba:00:
                    c7:3a:bb:23:5d:20:68:36:59:0d:5b:b9:c6:e5:2c:
                    49:06:06:6f:d5:d0:52:36:87:77:20:f3:03:1b:41:
                    fe:57:c1:d8:2a:71:1e:b6:a4:3a:09:f3:0f:5e:02:
                    4f:6d:a3:8b:76:da:cb:79:41:a3:4f:a7:8a:ca:9b:
                    53:ae:c9:4b:25:bf:1c:ba:12:c6:7f:75:07:99:36:
                    8f:e0:e4:be:98:c4:33:bb:58:b7:5c:5e:be:c5:76:
                    6c:98:c2:1b:e6:4b:01:e9:85:e7:a4:a4:1c:fb:c3:
                    49:77:af:45:88:e6:d1:17:52:b1:8a:dc:51:03:e9:
                    ce:36:7b:14:f1:44:04:21:bc:d8:e4:9c:f5:1c:af:
                    1a:f9:26:a4:c6:ac:9c:b9:b0:1b:aa:12:c9:5b:c1:
                    be:86:25:e9:09:47:d8:4e:0c:c0:04:bf:83:13:ff:
                    6e:0d:27:60:59:37:c3:30:8c:4c:3f:8d:bd:72:be:
                    cf:39:cf:25:3d:bf:5c:3f:f6:ac:3f:5b:1e:45:e7:
                    66:f6:11
                Exponent: 65537 (0x10001)
        X509v3 extensions:
            X509v3 Key Usage: critical
                Digital Signature
            X509v3 Basic Constraints: 
                CA:FALSE
            X509v3 Extended Key Usage: 
                TLS Web Client Authentication
            X509v3 Subject Key Identifier: 
                40:EE:69:DE:BD:D9:C6:74:FA:A9:60:F4:B3:6F:5C:0F:BC:98:41:E1
            X509v3 Authority Key Identifier: 
                8A:EC:AB:95:84:4F:E3:07:75:86:68:CC:59:B9:2B:FF:A8:14:5D:E3
            Authority Information Access: 
                CA Issuers - URI:http://pki.scada.local/component-ca.cer
            X509v3 CRL Distribution Points: 
                Full Name:
                  URI:http://pki.scada.local/component-ca.crl
            X509v3 Certificate Policies: 
                Policy: Blue Medium Device Assurance
    Signature Algorithm: sha256WithRSAEncryption
    Signature Value:
        9a:fa:8b:2d:ba:1d:f8:3f:69:dc:1b:53:33:31:27:51:bb:1a:
        ca:52:b0:e6:0e:58:9f:2f:58:0e:66:b4:52:88:ad:1a:39:0c:
        ba:90:4e:c6:c2:51:4c:66:d1:59:97:fe:33:c5:e8:48:2e:bd:
        c7:c0:87:c0:38:d0:a5:ab:a5:b6:b4:50:11:b4:e3:3f:a3:56:
        00:c9:06:88:21:b1:7a:4c:cd:c1:52:37:60:a0:ff:47:02:1a:
        5d:4e:99:fc:94:45:fb:62:29:a5:6a:1e:c7:06:d1:4c:07:33:
        6f:10:bc:9f:77:9f:88:58:d5:8f:bc:3a:b1:db:df:35:9d:cb:
        3c:5b:e3:62:98:6e:f5:d6:8d:9b:78:a3:a4:c0:f9:27:6c:72:
        bb:29:02:62:ef:f7:a8:62:c2:40:9e:92:02:dc:e1:8d:21:12:
        82:cc:d0:e8:40:03:5b:3b:08:57:26:84:8b:56:af:41:44:c6:
        2c:5b:df:f1:36:d3:7e:af:a6:cd:81:4f:6d:7f:25:13:2d:28:
        f6:d2:f9:20:1e:4a:5d:bd:5a:52:58:ae:72:74:dc:13:72:29:
        84:98:19:ae:92:32:f8:22:21:40:8d:48:4c:72:e6:54:d2:41:
        15:13:87:69:fd:ae:8f:f5:44:a2:d4:a6:b5:04:41:53:97:2a:
        31:f6:c4:64:72:38:23:26:33:17:d9:c9:67:8b:95:60:f2:51:
        dd:bc:14:ce:ac:1c:3a:89:53:ea:c6:72:d8:6c:05:1e:8e:21:
        35:01:fe:64:20:fe:0d:ca:d3:f4:e8:3c:a3:ad:3d:53:26:55:
        31:d2:57:38:5b:c8:09:07:f5:38:78:7b:35:da:f3:ad:8c:a1:
        25:5f:6f:20:21:26:e2:83:7c:28:a3:0f:a1:2d:e2:52:7d:84:
        5b:41:04:e7:cf:26:1f:fd:90:d3:d4:a9:8f:ee:03:32:88:c3:
        61:55:75:ce:8d:f3:40:b7:e6:28:2e:9d:81:74:12:0f:11:9b:
        a6:ed:67:33:8c:d2:66:c2:bc:7f:85:32:7c:1f:f8:fc:f3:29:
        2b:90:ad:a9:76:10:5d:f3:80:f5:61:5f:a4:4b:70:95:ab:92:
        bd:64:ac:71:9a:d3:d9:33:e8:d4:75:fa:98:e9:8b:9d:b4:b3:
        7b:06:94:5b:10:83:32:49:14:fd:45:34:3b:12:b0:4c:4d:35:
        07:49:e5:90:ac:c8:be:51:c2:47:51:07:15:cb:56:c3:dc:4e:
        76:5b:aa:91:a7:26:47:a8:ec:eb:a7:af:b1:3f:8b:28:91:d8:
        4e:6e:ca:5c:ef:b1:31:2b:c9:39:3a:ae:48:c2:2b:e1:9e:19:
        77:31:c9:cb:b8:aa:61:30
-----BEGIN CERTIFICATE-----
MIIGPzCCBCegAwIBAgIBCTANBgkqhkiG9w0BAQsFADBLMQswCQYDVQQGEwJVUzEO
MAwGA1UECgwFU0NBREExFTATBgNVBAsMDENvbXBvbmVudCBDQTEVMBMGA1UEAwwM
Q29tcG9uZW50IENBMB4XDTIyMTIwNTIwMTYyNFoXDTI0MTIwNDIwMTYyNFowbDEL
MAkGA1UEBhMCVVMxCzAJBgNVBAgMAk5DMRAwDgYDVQQHDAdSYWxlaWdoMQ4wDAYD
VQQKDAVTQ0FEQTETMBEGA1UECwwKU0NBREFfQVVUSDEZMBcGA1UEAwwQYXV0aC5z
Y2FkYS5sb2NhbDCCAiIwDQYJKoZIhvcNAQEBBQADggIPADCCAgoCggIBALJNe/jF
L1+TG6Gkbr7VJSI4PtTBTdbhJf7BNA5mi/IOhGg1KJuxD/x/z1dB6si3kXaBgOPm
xcVsF1KDvzre4YTmtr0fkXg5bVUFSE+grwroSeInyaC0iJVjoXniZbrJBAgjsk4k
7POnpOp3s1dDAseWuc3gv57Of+yS2NBvnQTNRYpA/2jcEvc1xzSNitAG6C4O7hP4
kr9YjWRHQKxLSxiBb/czlHAw3NKdBeyXai1Aq4IaITHAfMM3iYOi2tk6a68/b+V4
XQSDhf/lb7A1hQVL9SLNyaQG+4+Iz/ARMaVDF0aRpXTgr5YEcRut7wWDxSqAYelI
Wz9jfSr1iaKXfKazpCxR8vnBYQG1IDMM/cWCvBPEuPABEW7O5GwFxFFyAdXUU1Vf
QArWm+gJVE8Xl0flb6ZlmpTBPboAxzq7I10gaDZZDVu5xuUsSQYGb9XQUjaHdyDz
AxtB/lfB2CpxHrakOgnzD14CT22ji3bay3lBo0+nisqbU67JSyW/HLoSxn91B5k2
j+DkvpjEM7tYt1xevsV2bJjCG+ZLAemF56SkHPvDSXevRYjm0RdSsYrcUQPpzjZ7
FPFEBCG82OSc9RyvGvkmpMasnLmwG6oSyVvBvoYl6QlH2E4MwAS/gxP/bg0nYFk3
wzCMTD+NvXK+zznPJT2/XD/2rD9bHkXnZvYRAgMBAAGjggELMIIBBzAOBgNVHQ8B
Af8EBAMCB4AwCQYDVR0TBAIwADATBgNVHSUEDDAKBggrBgEFBQcDAjAdBgNVHQ4E
FgQUQO5p3r3ZxnT6qWD0s29cD7yYQeEwHwYDVR0jBBgwFoAUiuyrlYRP4wd1hmjM
Wbkr/6gUXeMwQwYIKwYBBQUHAQEENzA1MDMGCCsGAQUFBzAChidodHRwOi8vcGtp
LnNjYWRhLmxvY2FsL2NvbXBvbmVudC1jYS5jZXIwOAYDVR0fBDEwLzAtoCugKYYn
aHR0cDovL3BraS5zY2FkYS5sb2NhbC9jb21wb25lbnQtY2EuY3JsMBYGA1UdIAQP
MA0wCwYJKwYBBAEAAQcJMA0GCSqGSIb3DQEBCwUAA4ICAQCa+ostuh34P2ncG1Mz
MSdRuxrKUrDmDlifL1gOZrRSiK0aOQy6kE7GwlFMZtFZl/4zxehILr3HwIfAONCl
q6W2tFARtOM/o1YAyQaIIbF6TM3BUjdgoP9HAhpdTpn8lEX7Yimlah7HBtFMBzNv
ELyfd5+IWNWPvDqx2981ncs8W+NimG711o2beKOkwPknbHK7KQJi7/eoYsJAnpIC
3OGNIRKCzNDoQANbOwhXJoSLVq9BRMYsW9/xNtN+r6bNgU9tfyUTLSj20vkgHkpd
vVpSWK5ydNwTcimEmBmukjL4IiFAjUhMcuZU0kEVE4dp/a6P9USi1Ka1BEFTlyox
9sRkcjgjJjMX2clni5Vg8lHdvBTOrBw6iVPqxnLYbAUejiE1Af5kIP4NytP06Dyj
rT1TJlUx0lc4W8gJB/U4eHs12vOtjKElX28gISbig3woow+hLeJSfYRbQQTnzyYf
/ZDT1KmP7gMyiMNhVXXOjfNAt+YoLp2BdBIPEZum7WczjNJmwrx/hTJ8H/j88ykr
kK2pdhBd84D1YV+kS3CVq5K9ZKxxmtPZM+jUdfqY6YudtLN7BpRbEIMySRT9RTQ7
ErBMTTUHSeWQrMi+UcJHUQcVy1bD3E52W6qRpyZHqOzrp6+xP4sokdhObspc77Ex
K8k5Oq5Iwivhnhl3McnLuKphMA==
-----END CERTIFICATE-----
