Certificate:
    Data:
        Version: 3 (0x2)
        Serial Number: 9 (0x9)
        Signature Algorithm: sha256WithRSAEncryption
        Issuer: C=US, O=SCADA, OU=Component CA, CN=Component CA
        Validity
            Not Before: Dec  5 20:16:24 2022 GMT
            Not After : Dec  4 20:16:24 2024 GMT
        Subject: C=US, ST=NC, L=Raleigh, O=SCADA, OU=SCADA_AUTH, CN=auth.scada.local
        Subject Public Key Info:
            Public Key Algorithm: rsaEncryption
                Public-Key: (4096 bit)
                Modulus:
                    00:b2:4d:7b:f8:c5:2f:5f:93:1b:a1:a4:6e:be:d5:
                    25:22:38:3e:d4:c1:4d:d6:e1:25:fe:c1:34:0e:66:
                    8b:f2:0e:84:68:35:28:9b:b1:0f:fc:7f:cf:57:41:
                    ea:c8:b7:91:76:81:80:e3:e6:c5:c5:6c:17:52:83:
                    bf:3a:de:e1:84:e6:b6:bd:1f:91:78:39:6d:55:05:
                    48:4f:a0:af:0a:e8:49:e2:27:c9:a0:b4:88:95:63:
                    a1:79:e2:65:ba:c9:04:08:23:b2:4e:24:ec:f3:a7:
                    a4:ea:77:b3:57:43:02:c7:96:b9:cd:e0:bf:9e:ce:
                    7f:ec:92:d8:d0:6f:9d:04:cd:45:8a:40:ff:68:dc:
                    12:f7:35:c7:34:8d:8a:d0:06:e8:2e:0e:ee:13:f8:
                    92:bf:58:8d:64:47:40:ac:4b:4b:18:81:6f:f7:33:
                    94:70:30:dc:d2:9d:05:ec:97:6a:2d:40:ab:82:1a:
                    21:31:c0:7c:c3:37:89:83:a2:da:d9:3a:6b:af:3f:
                    6f:e5:78:5d:04:83:85:ff:e5:6f:b0:35:85:05:4b:
                    f5:22:cd:c9:a4:06:fb:8f:88:cf:f0:11:31:a5:43:
                    17:46:91:a5:74:e0:af:96:04:71:1b:ad:ef:05:83:
                    c5:2a:80:61:e9:48:5b:3f:63:7d:2a:f5:89:a2:97:
                    7c:a6:b3:a4:2c:51:f2:f9:c1:61:01:b5:20:33:0c:
                    fd:c5:82:bc:13:c4:b8:f0:01:11:6e:ce:e4:6c:05:
                    c4:51:72:01:d5:d4:53:55:5f:40:0a:d6:9b:e8:09:
                    54:4f:17:97:47:e5:6f:a6:65:9a:94:c1:3d:ba:00:
                    c7:3a:bb:23:5d:20:68:36:59:0d:5b:b9:c6:e5:2c:
                    49:06:06:6f:d5:d0:52:36:87:77:20:f3:03:1b:41:
                    fe:57:c1:d8:2a:71:1e:b6:a4:3a:09:f3:0f:5e:02:
                    4f:6d:a3:8b:76:da:cb:79:41:a3:4f:a7:8a:ca:9b:
                    53:ae:c9:4b:25:bf:1c:ba:12:c6:7f:75:07:99:36:
                    8f:e0:e4:be:98:c4:33:bb:58:b7:5c:5e:be:c5:76:
                    6c:98:c2:1b:e6:4b:01:e9:85:e7:a4:a4:1c:fb:c3:
                    49:77:af:45:88:e6:d1:17:52:b1:8a:dc:51:03:e9:
                    ce:36:7b:14:f1:44:04:21:bc:d8:e4:9c:f5:1c:af:
                    1a:f9:26:a4:c6:ac:9c:b9:b0:1b:aa:12:c9:5b:c1:
                    be:86:25:e9:09:47:d8:4e:0c:c0:04:bf:83:13:ff:
                    6e:0d:27:60:59:37:c3:30:8c:4c:3f:8d:bd:72:be:
                    cf:39:cf:25:3d:bf:5c:3f:f6:ac:3f:5b:1e:45:e7:
                    66:f6:11
                Exponent: 65537 (0x10001)
        X509v3 extensions:
            X509v3 Key Usage: critical
                Digital Signature
            X509v3 Basic Constraints: 
                CA:FALSE
            X509v3 Extended Key Usage: 
                TLS Web Client Authentication
            X509v3 Subject Key Identifier: 
                40:EE:69:DE:BD:D9:C6:74:FA:A9:60:F4:B3:6F:5C:0F:BC:98:41:E1
            X509v3 Authority Key Identifier: 
                8A:EC:AB:95:84:4F:E3:07:75:86:68:CC:59:B9:2B:FF:A8:14:5D:E3
            Authority Information Access: 
                CA Issuers - URI:http://pki.scada.local/component-ca.cer
            X509v3 CRL Distribution Points: 
                Full Name:
                  URI:http://pki.scada.local/component-ca.crl
            X509v3 Certificate Policies: 
                Policy: Blue Medium Device Assurance
    Signature Algorithm: sha256WithRSAEncryption
    Signature Value:
        9a:fa:8b:2d:ba:1d:f8:3f:69:dc:1b:53:33:31:27:51:bb:1a:
        ca:52:b0:e6:0e:58:9f:2f:58:0e:66:b4:52:88:ad:1a:39:0c:
        ba:90:4e:c6:c2:51:4c:66:d1:59:97:fe:33:c5:e8:48:2e:bd:
        c7:c0:87:c0:38:d0:a5:ab:a5:b6:b4:50:11:b4:e3:3f:a3:56:
        00:c9:06:88:21:b1:7a:4c:cd:c1:52:37:60:a0:ff:47:02:1a:
        5d:4e:99:fc:94:45:fb:62:29:a5:6a:1e:c7:06:d1:4c:07:33:
        6f:10:bc:9f:77:9f:88:58:d5:8f:bc:3a:b1:db:df:35:9d:cb:
        3c:5b:e3:62:98:6e:f5:d6:8d:9b:78:a3:a4:c0:f9:27:6c:72:
        bb:29:02:62:ef:f7:a8:62:c2:40:9e:92:02:dc:e1:8d:21:12:
        82:cc:d0:e8:40:03:5b:3b:08:57:26:84:8b:56:af:41:44:c6:
        2c:5b:df:f1:36:d3:7e:af:a6:cd:81:4f:6d:7f:25:13:2d:28:
        f6:d2:f9:20:1e:4a:5d:bd:5a:52:58:ae:72:74:dc:13:72:29:
        84:98:19:ae:92:32:f8:22:21:40:8d:48:4c:72:e6:54:d2:41:
        15:13:87:69:fd:ae:8f:f5:44:a2:d4:a6:b5:04:41:53:97:2a:
        31:f6:c4:64:72:38:23:26:33:17:d9:c9:67:8b:95:60:f2:51:
        dd:bc:14:ce:ac:1c:3a:89:53:ea:c6:72:d8:6c:05:1e:8e:21:
        35:01:fe:64:20:fe:0d:ca:d3:f4:e8:3c:a3:ad:3d:53:26:55:
        31:d2:57:38:5b:c8:09:07:f5:38:78:7b:35:da:f3:ad:8c:a1:
        25:5f:6f:20:21:26:e2:83:7c:28:a3:0f:a1:2d:e2:52:7d:84:
        5b:41:04:e7:cf:26:1f:fd:90:d3:d4:a9:8f:ee:03:32:88:c3:
        61:55:75:ce:8d:f3:40:b7:e6:28:2e:9d:81:74:12:0f:11:9b:
        a6:ed:67:33:8c:d2:66:c2:bc:7f:85:32:7c:1f:f8:fc:f3:29:
        2b:90:ad:a9:76:10:5d:f3:80:f5:61:5f:a4:4b:70:95:ab:92:
        bd:64:ac:71:9a:d3:d9:33:e8:d4:75:fa:98:e9:8b:9d:b4:b3:
        7b:06:94:5b:10:83:32:49:14:fd:45:34:3b:12:b0:4c:4d:35:
        07:49:e5:90:ac:c8:be:51:c2:47:51:07:15:cb:56:c3:dc:4e:
        76:5b:aa:91:a7:26:47:a8:ec:eb:a7:af:b1:3f:8b:28:91:d8:
        4e:6e:ca:5c:ef:b1:31:2b:c9:39:3a:ae:48:c2:2b:e1:9e:19:
        77:31:c9:cb:b8:aa:61:30
-----BEGIN CERTIFICATE-----
MIIGPzCCBCegAwIBAgIBCTANBgkqhkiG9w0BAQsFADBLMQswCQYDVQQGEwJVUzEO
MAwGA1UECgwFU0NBREExFTATBgNVBAsMDENvbXBvbmVudCBDQTEVMBMGA1UEAwwM
Q29tcG9uZW50IENBMB4XDTIyMTIwNTIwMTYyNFoXDTI0MTIwNDIwMTYyNFowbDEL
MAkGA1UEBhMCVVMxCzAJBgNVBAgMAk5DMRAwDgYDVQQHDAdSYWxlaWdoMQ4wDAYD
VQQKDAVTQ0FEQTETMBEGA1UECwwKU0NBREFfQVVUSDEZMBcGA1UEAwwQYXV0aC5z
Y2FkYS5sb2NhbDCCAiIwDQYJKoZIhvcNAQEBBQADggIPADCCAgoCggIBALJNe/jF
L1+TG6Gkbr7VJSI4PtTBTdbhJf7BNA5mi/IOhGg1KJuxD/x/z1dB6si3kXaBgOPm
xcVsF1KDvzre4YTmtr0fkXg5bVUFSE+grwroSeInyaC0iJVjoXniZbrJBAgjsk4k
7POnpOp3s1dDAseWuc3gv57Of+yS2NBvnQTNRYpA/2jcEvc1xzSNitAG6C4O7hP4
kr9YjWRHQKxLSxiBb/czlHAw3NKdBeyXai1Aq4IaITHAfMM3iYOi2tk6a68/b+V4
XQSDhf/lb7A1hQVL9SLNyaQG+4+Iz/ARMaVDF0aRpXTgr5YEcRut7wWDxSqAYelI
Wz9jfSr1iaKXfKazpCxR8vnBYQG1IDMM/cWCvBPEuPABEW7O5GwFxFFyAdXUU1Vf
QArWm+gJVE8Xl0flb6ZlmpTBPboAxzq7I10gaDZZDVu5xuUsSQYGb9XQUjaHdyDz
AxtB/lfB2CpxHrakOgnzD14CT22ji3bay3lBo0+nisqbU67JSyW/HLoSxn91B5k2
j+DkvpjEM7tYt1xevsV2bJjCG+ZLAemF56SkHPvDSXevRYjm0RdSsYrcUQPpzjZ7
FPFEBCG82OSc9RyvGvkmpMasnLmwG6oSyVvBvoYl6QlH2E4MwAS/gxP/bg0nYFk3
wzCMTD+NvXK+zznPJT2/XD/2rD9bHkXnZvYRAgMBAAGjggELMIIBBzAOBgNVHQ8B
Af8EBAMCB4AwCQYDVR0TBAIwADATBgNVHSUEDDAKBggrBgEFBQcDAjAdBgNVHQ4E
FgQUQO5p3r3ZxnT6qWD0s29cD7yYQeEwHwYDVR0jBBgwFoAUiuyrlYRP4wd1hmjM
Wbkr/6gUXeMwQwYIKwYBBQUHAQEENzA1MDMGCCsGAQUFBzAChidodHRwOi8vcGtp
LnNjYWRhLmxvY2FsL2NvbXBvbmVudC1jYS5jZXIwOAYDVR0fBDEwLzAtoCugKYYn
aHR0cDovL3BraS5zY2FkYS5sb2NhbC9jb21wb25lbnQtY2EuY3JsMBYGA1UdIAQP
MA0wCwYJKwYBBAEAAQcJMA0GCSqGSIb3DQEBCwUAA4ICAQCa+ostuh34P2ncG1Mz
MSdRuxrKUrDmDlifL1gOZrRSiK0aOQy6kE7GwlFMZtFZl/4zxehILr3HwIfAONCl
q6W2tFARtOM/o1YAyQaIIbF6TM3BUjdgoP9HAhpdTpn8lEX7Yimlah7HBtFMBzNv
ELyfd5+IWNWPvDqx2981ncs8W+NimG711o2beKOkwPknbHK7KQJi7/eoYsJAnpIC
3OGNIRKCzNDoQANbOwhXJoSLVq9BRMYsW9/xNtN+r6bNgU9tfyUTLSj20vkgHkpd
vVpSWK5ydNwTcimEmBmukjL4IiFAjUhMcuZU0kEVE4dp/a6P9USi1Ka1BEFTlyox
9sRkcjgjJjMX2clni5Vg8lHdvBTOrBw6iVPqxnLYbAUejiE1Af5kIP4NytP06Dyj
rT1TJlUx0lc4W8gJB/U4eHs12vOtjKElX28gISbig3woow+hLeJSfYRbQQTnzyYf
/ZDT1KmP7gMyiMNhVXXOjfNAt+YoLp2BdBIPEZum7WczjNJmwrx/hTJ8H/j88ykr
kK2pdhBd84D1YV+kS3CVq5K9ZKxxmtPZM+jUdfqY6YudtLN7BpRbEIMySRT9RTQ7
ErBMTTUHSeWQrMi+UcJHUQcVy1bD3E52W6qRpyZHqOzrp6+xP4sokdhObspc77Ex
K8k5Oq5Iwivhnhl3McnLuKphMA==
-----END CERTIFICATE-----
Certificate:
    Data:
        Version: 3 (0x2)
        Serial Number: 8 (0x8)
        Signature Algorithm: sha256WithRSAEncryption
        Issuer: C=US, O=SCADA, OU=Component CA, CN=Component CA
        Validity
            Not Before: Dec  5 20:16:10 2022 GMT
            Not After : Dec  4 20:16:10 2024 GMT
        Subject: C=US, ST=NC, L=Raleigh, O=SCADA, OU=SCADA_AUTH, CN=auth.scada.local
        Subject Public Key Info:
            Public Key Algorithm: rsaEncryption
                Public-Key: (4096 bit)
                Modulus:
                    00:81:3a:22:2c:d5:00:0e:2e:cb:c6:a9:48:c5:c7:
                    d1:84:72:7e:7a:65:af:2a:d2:45:7a:39:aa:e4:57:
                    08:c0:13:bc:ce:45:52:9d:02:02:1d:f1:e1:a8:24:
                    bf:c3:df:cf:cb:d0:5e:9e:0a:7d:8e:64:bf:15:67:
                    21:41:3f:76:c2:83:ae:4e:4d:e5:a9:44:9a:c5:3f:
                    fd:6b:c5:3a:d7:99:47:87:19:08:cf:2a:b0:5b:5c:
                    12:8a:5e:a9:53:1a:59:5d:23:b3:87:af:b5:fe:7b:
                    2e:74:f6:81:56:4a:25:49:5c:de:b0:dc:e5:92:79:
                    20:c1:e5:cf:06:2c:98:69:56:cf:f4:c3:3c:0a:49:
                    64:29:94:a2:46:ff:fa:de:02:e5:27:d8:e4:e2:b6:
                    2e:21:1d:de:0b:34:c2:b0:17:32:8f:a6:aa:4f:8d:
                    55:0a:97:34:a7:88:43:5a:26:9f:56:f8:2d:a4:a7:
                    ae:4d:76:5b:b0:18:64:0e:4c:86:58:da:93:46:5d:
                    c5:97:94:ae:f2:f5:f0:17:c6:ab:c9:5c:2d:41:3d:
                    73:c5:3d:f0:62:91:25:19:4d:7a:2b:3c:19:68:d1:
                    37:a1:0f:96:c8:e6:39:ae:d4:4c:b5:98:25:70:71:
                    a3:7a:fb:93:6d:e5:9b:d5:5a:b5:5d:4e:90:f1:9a:
                    a8:62:61:92:20:0b:2b:e3:07:46:33:08:03:94:d7:
                    f4:45:a9:8d:fb:a4:3b:e6:bb:f0:d4:e5:55:02:e7:
                    e3:04:8d:20:12:a4:65:cb:bc:83:bb:c3:c3:25:ee:
                    5a:f4:4f:41:13:ff:41:ee:ac:9f:a8:2c:ca:94:85:
                    ae:88:ae:3d:d3:ec:fe:23:23:ad:d3:70:c7:18:b9:
                    8f:c7:c5:03:3f:f9:f6:63:b1:cf:10:35:b1:f5:da:
                    8b:47:d4:c9:a7:fd:2f:20:4c:16:51:70:39:25:80:
                    00:76:1a:e2:6d:0b:86:d2:a6:41:a3:fe:f3:21:f9:
                    2c:bd:d2:d1:0b:bd:a0:ff:67:97:1e:8e:cf:a2:79:
                    97:e2:c2:73:ca:b8:ba:cf:0b:37:14:81:75:b8:ea:
                    bb:c4:25:79:53:58:94:f2:da:0e:49:4f:60:ef:e4:
                    15:0c:51:0b:24:9f:72:8b:32:a5:00:63:71:f7:84:
                    17:6c:25:27:24:66:d0:62:86:8e:21:c2:5f:85:01:
                    e0:ce:49:fd:0a:d1:b0:72:4e:7b:d9:0d:b3:7b:51:
                    54:d7:44:29:9b:10:03:6c:9d:0a:87:ea:af:0f:9d:
                    21:f5:35:52:36:37:df:f3:db:65:43:6e:0c:f9:5e:
                    98:62:3f:0b:44:60:37:b2:ee:7e:c9:d7:13:ea:32:
                    63:ef:bf
                Exponent: 65537 (0x10001)
        X509v3 extensions:
            X509v3 Key Usage: critical
                Digital Signature
            X509v3 Basic Constraints: 
                CA:FALSE
            X509v3 Extended Key Usage: 
                TLS Web Client Authentication
            X509v3 Subject Key Identifier: 
                18:BB:45:4A:12:11:AB:C6:40:C4:51:86:7C:E6:16:9D:DC:25:68:0A
            X509v3 Authority Key Identifier: 
                8A:EC:AB:95:84:4F:E3:07:75:86:68:CC:59:B9:2B:FF:A8:14:5D:E3
            Authority Information Access: 
                CA Issuers - URI:http://pki.scada.local/component-ca.cer
            X509v3 CRL Distribution Points: 
                Full Name:
                  URI:http://pki.scada.local/component-ca.crl
            X509v3 Certificate Policies: 
                Policy: Blue Medium Device Assurance
    Signature Algorithm: sha256WithRSAEncryption
    Signature Value:
        2d:66:b0:29:49:0e:76:2f:06:0b:9b:7d:15:57:49:28:69:35:
        26:df:b9:c6:34:00:83:41:96:2d:7e:52:4c:4a:20:87:f9:3d:
        96:0f:2c:c6:ba:6f:1d:bc:17:fc:3c:85:45:3a:eb:97:bd:66:
        0b:79:b6:d6:15:04:5e:5c:d9:31:29:ff:e7:77:81:92:7c:00:
        ee:09:11:fb:d0:0b:3e:3a:1e:44:7c:08:ef:db:74:c9:57:01:
        87:8e:3f:1a:79:38:f8:7d:f6:83:0d:d0:25:89:d7:73:ca:2d:
        0d:33:86:ea:00:7b:6d:db:74:38:aa:bb:f6:27:a3:de:e6:75:
        ad:c7:fa:9f:74:e9:7b:de:35:e5:61:9b:23:43:96:c1:02:a3:
        79:c9:45:92:c9:e2:83:19:4b:fa:fd:2a:f8:19:a6:10:e9:16:
        ff:78:bd:8d:0a:93:2d:9c:f4:31:11:be:d3:1d:95:ea:85:3a:
        3f:eb:c6:31:fe:0f:da:9b:3a:e1:0f:e2:be:1b:a4:76:34:35:
        d3:9a:05:a1:8d:e7:be:ed:82:75:78:fb:8e:c7:21:9c:17:b9:
        51:db:00:e6:2b:d8:05:3a:cb:6a:d2:d0:8a:d6:a4:7c:3a:f9:
        89:bd:14:a0:85:07:1e:17:c0:13:a5:8b:93:e6:c0:09:c8:c4:
        1b:46:8c:c7:7b:7b:c9:70:52:7b:a8:9e:c6:f3:10:d1:2d:a3:
        a3:89:8b:27:7c:67:e5:f5:a3:36:14:44:f0:79:35:0c:db:cf:
        69:84:37:84:e2:e6:41:50:53:72:4b:18:84:4e:ce:00:73:09:
        7e:4f:95:46:e6:f2:9d:0b:a5:2e:16:c2:c0:ba:bb:49:88:10:
        bb:89:97:a1:6c:f6:e3:47:5f:3f:7a:7b:37:bf:ee:34:1b:73:
        fc:03:24:f1:56:58:cb:ba:77:3a:eb:b2:8d:18:4a:52:d4:31:
        ff:01:1f:ef:96:8c:50:da:bb:43:f4:1a:88:e3:9b:14:36:59:
        1f:7c:fc:3e:17:ce:60:60:8c:98:f9:04:99:f9:d6:42:eb:21:
        16:83:f3:99:a7:b7:f9:98:19:25:94:81:4f:30:e5:48:0e:85:
        89:01:e4:a3:26:13:9a:f2:a8:80:3a:e9:15:0c:f6:15:43:b8:
        33:84:63:23:a7:fa:8a:87:89:fe:c0:80:5e:68:7b:37:7c:44:
        72:d0:e7:43:c0:91:3e:af:8f:d3:cb:8f:21:aa:a1:f1:41:98:
        4b:4a:1d:80:49:d8:46:fa:4a:e0:4d:75:22:e4:5e:91:4f:8f:
        f9:b1:fa:31:00:54:c4:07:bb:d5:72:6e:a2:ad:63:54:28:31:
        68:43:69:07:dc:01:07:5c
-----BEGIN CERTIFICATE-----
MIIGPzCCBCegAwIBAgIBCDANBgkqhkiG9w0BAQsFADBLMQswCQYDVQQGEwJVUzEO
MAwGA1UECgwFU0NBREExFTATBgNVBAsMDENvbXBvbmVudCBDQTEVMBMGA1UEAwwM
Q29tcG9uZW50IENBMB4XDTIyMTIwNTIwMTYxMFoXDTI0MTIwNDIwMTYxMFowbDEL
MAkGA1UEBhMCVVMxCzAJBgNVBAgMAk5DMRAwDgYDVQQHDAdSYWxlaWdoMQ4wDAYD
VQQKDAVTQ0FEQTETMBEGA1UECwwKU0NBREFfQVVUSDEZMBcGA1UEAwwQYXV0aC5z
Y2FkYS5sb2NhbDCCAiIwDQYJKoZIhvcNAQEBBQADggIPADCCAgoCggIBAIE6IizV
AA4uy8apSMXH0YRyfnplryrSRXo5quRXCMATvM5FUp0CAh3x4agkv8Pfz8vQXp4K
fY5kvxVnIUE/dsKDrk5N5alEmsU//WvFOteZR4cZCM8qsFtcEopeqVMaWV0js4ev
tf57LnT2gVZKJUlc3rDc5ZJ5IMHlzwYsmGlWz/TDPApJZCmUokb/+t4C5SfY5OK2
LiEd3gs0wrAXMo+mqk+NVQqXNKeIQ1omn1b4LaSnrk12W7AYZA5Mhljak0ZdxZeU
rvL18BfGq8lcLUE9c8U98GKRJRlNeis8GWjRN6EPlsjmOa7UTLWYJXBxo3r7k23l
m9VatV1OkPGaqGJhkiALK+MHRjMIA5TX9EWpjfukO+a78NTlVQLn4wSNIBKkZcu8
g7vDwyXuWvRPQRP/Qe6sn6gsypSFroiuPdPs/iMjrdNwxxi5j8fFAz/59mOxzxA1
sfXai0fUyaf9LyBMFlFwOSWAAHYa4m0LhtKmQaP+8yH5LL3S0Qu9oP9nlx6Oz6J5
l+LCc8q4us8LNxSBdbjqu8QleVNYlPLaDklPYO/kFQxRCySfcosypQBjcfeEF2wl
JyRm0GKGjiHCX4UB4M5J/QrRsHJOe9kNs3tRVNdEKZsQA2ydCofqrw+dIfU1UjY3
3/PbZUNuDPlemGI/C0RgN7LufsnXE+oyY++/AgMBAAGjggELMIIBBzAOBgNVHQ8B
Af8EBAMCB4AwCQYDVR0TBAIwADATBgNVHSUEDDAKBggrBgEFBQcDAjAdBgNVHQ4E
FgQUGLtFShIRq8ZAxFGGfOYWndwlaAowHwYDVR0jBBgwFoAUiuyrlYRP4wd1hmjM
Wbkr/6gUXeMwQwYIKwYBBQUHAQEENzA1MDMGCCsGAQUFBzAChidodHRwOi8vcGtp
LnNjYWRhLmxvY2FsL2NvbXBvbmVudC1jYS5jZXIwOAYDVR0fBDEwLzAtoCugKYYn
aHR0cDovL3BraS5zY2FkYS5sb2NhbC9jb21wb25lbnQtY2EuY3JsMBYGA1UdIAQP
MA0wCwYJKwYBBAEAAQcJMA0GCSqGSIb3DQEBCwUAA4ICAQAtZrApSQ52LwYLm30V
V0koaTUm37nGNACDQZYtflJMSiCH+T2WDyzGum8dvBf8PIVFOuuXvWYLebbWFQRe
XNkxKf/nd4GSfADuCRH70As+Oh5EfAjv23TJVwGHjj8aeTj4ffaDDdAliddzyi0N
M4bqAHtt23Q4qrv2J6Pe5nWtx/qfdOl73jXlYZsjQ5bBAqN5yUWSyeKDGUv6/Sr4
GaYQ6Rb/eL2NCpMtnPQxEb7THZXqhTo/68Yx/g/amzrhD+K+G6R2NDXTmgWhjee+
7YJ1ePuOxyGcF7lR2wDmK9gFOstq0tCK1qR8OvmJvRSghQceF8ATpYuT5sAJyMQb
RozHe3vJcFJ7qJ7G8xDRLaOjiYsnfGfl9aM2FETweTUM289phDeE4uZBUFNySxiE
Ts4Acwl+T5VG5vKdC6UuFsLAurtJiBC7iZehbPbjR18/ens3v+40G3P8AyTxVljL
unc667KNGEpS1DH/AR/vloxQ2rtD9BqI45sUNlkffPw+F85gYIyY+QSZ+dZC6yEW
g/OZp7f5mBkllIFPMOVIDoWJAeSjJhOa8qiAOukVDPYVQ7gzhGMjp/qKh4n+wIBe
aHs3fERy0OdDwJE+r4/Ty48hqqHxQZhLSh2ASdhG+krgTXUi5F6RT4/5sfoxAFTE
B7vVcm6irWNUKDFoQ2kH3AEHXA==
-----END CERTIFICATE-----
